ARM Linker, 5.03 [Build 24] [MDK-ARM Standard]

==============================================================================

Section Cross References

    startup_stm32f10x_hd.o(STACK) refers (Special) to heapauxi.o(.text) for __use_two_region_memory
    startup_stm32f10x_hd.o(HEAP) refers (Special) to heapauxi.o(.text) for __use_two_region_memory
    startup_stm32f10x_hd.o(RESET) refers (Special) to heapauxi.o(.text) for __use_two_region_memory
    startup_stm32f10x_hd.o(RESET) refers to startup_stm32f10x_hd.o(STACK) for __initial_sp
    startup_stm32f10x_hd.o(RESET) refers to startup_stm32f10x_hd.o(.text) for Reset_Handler
    startup_stm32f10x_hd.o(RESET) refers to stm32f10x_it.o(i.NMI_Handler) for NMI_Handler
    startup_stm32f10x_hd.o(RESET) refers to stm32f10x_it.o(i.HardFault_Handler) for HardFault_Handler
    startup_stm32f10x_hd.o(RESET) refers to stm32f10x_it.o(i.MemManage_Handler) for MemManage_Handler
    startup_stm32f10x_hd.o(RESET) refers to stm32f10x_it.o(i.BusFault_Handler) for BusFault_Handler
    startup_stm32f10x_hd.o(RESET) refers to stm32f10x_it.o(i.UsageFault_Handler) for UsageFault_Handler
    startup_stm32f10x_hd.o(RESET) refers to stm32f10x_it.o(i.SVC_Handler) for SVC_Handler
    startup_stm32f10x_hd.o(RESET) refers to stm32f10x_it.o(i.DebugMon_Handler) for DebugMon_Handler
    startup_stm32f10x_hd.o(RESET) refers to stm32f10x_it.o(i.PendSV_Handler) for PendSV_Handler
    startup_stm32f10x_hd.o(RESET) refers to stm32f10x_it.o(i.SysTick_Handler) for SysTick_Handler
    startup_stm32f10x_hd.o(RESET) refers to stm32f10x_it.o(i.PVD_IRQHandler) for PVD_IRQHandler
    startup_stm32f10x_hd.o(RESET) refers to stm32f10x_it.o(i.RTC_IRQHandler) for RTC_IRQHandler
    startup_stm32f10x_hd.o(RESET) refers to stm32f10x_it.o(i.DMA1_Channel1_IRQHandler) for DMA1_Channel1_IRQHandler
    startup_stm32f10x_hd.o(RESET) refers to stm32f10x_it.o(i.USB_LP_CAN1_RX0_IRQHandler) for USB_LP_CAN1_RX0_IRQHandler
    startup_stm32f10x_hd.o(RESET) refers to stm32f10x_it.o(i.EXTI9_5_IRQHandler) for EXTI9_5_IRQHandler
    startup_stm32f10x_hd.o(RESET) refers to stm32f10x_it.o(i.USART1_IRQHandler) for USART1_IRQHandler
    startup_stm32f10x_hd.o(RESET) refers to stm32f10x_it.o(i.USART2_IRQHandler) for USART2_IRQHandler
    startup_stm32f10x_hd.o(RESET) refers to stm32f10x_it.o(i.USART3_IRQHandler) for USART3_IRQHandler
    startup_stm32f10x_hd.o(RESET) refers to stm32f10x_it.o(i.EXTI15_10_IRQHandler) for EXTI15_10_IRQHandler
    startup_stm32f10x_hd.o(RESET) refers to stm32f10x_it.o(i.RTCAlarm_IRQHandler) for RTCAlarm_IRQHandler
    startup_stm32f10x_hd.o(RESET) refers to stm32f10x_it.o(i.UART4_IRQHandler) for UART4_IRQHandler
    startup_stm32f10x_hd.o(.text) refers (Special) to heapauxi.o(.text) for __use_two_region_memory
    startup_stm32f10x_hd.o(.text) refers to system_stm32f10x.o(i.SystemInit) for SystemInit
    startup_stm32f10x_hd.o(.text) refers to __main.o(!!!main) for __main
    startup_stm32f10x_hd.o(.text) refers to startup_stm32f10x_hd.o(HEAP) for Heap_Mem
    startup_stm32f10x_hd.o(.text) refers to startup_stm32f10x_hd.o(STACK) for Stack_Mem
    system_stm32f10x.o(i.SetSysClock) refers to system_stm32f10x.o(i.SetSysClockTo72) for SetSysClockTo72
    system_stm32f10x.o(i.SystemCoreClockUpdate) refers to system_stm32f10x.o(.data) for SystemCoreClock
    system_stm32f10x.o(i.SystemInit) refers to system_stm32f10x.o(i.SetSysClock) for SetSysClock
    stm32f10x_gpio.o(i.GPIO_AFIODeInit) refers to stm32f10x_rcc.o(i.RCC_APB2PeriphResetCmd) for RCC_APB2PeriphResetCmd
    stm32f10x_gpio.o(i.GPIO_DeInit) refers to stm32f10x_rcc.o(i.RCC_APB2PeriphResetCmd) for RCC_APB2PeriphResetCmd
    stm32f10x_rcc.o(i.RCC_GetClocksFreq) refers to stm32f10x_rcc.o(.data) for APBAHBPrescTable
    stm32f10x_rcc.o(i.RCC_WaitForHSEStartUp) refers to stm32f10x_rcc.o(i.RCC_GetFlagStatus) for RCC_GetFlagStatus
    stm32f10x_usart.o(i.USART_DeInit) refers to stm32f10x_rcc.o(i.RCC_APB2PeriphResetCmd) for RCC_APB2PeriphResetCmd
    stm32f10x_usart.o(i.USART_DeInit) refers to stm32f10x_rcc.o(i.RCC_APB1PeriphResetCmd) for RCC_APB1PeriphResetCmd
    stm32f10x_usart.o(i.USART_Init) refers to stm32f10x_rcc.o(i.RCC_GetClocksFreq) for RCC_GetClocksFreq
    stm32f10x_rtc.o(i.RTC_SetAlarm) refers to stm32f10x_rtc.o(i.RTC_EnterConfigMode) for RTC_EnterConfigMode
    stm32f10x_rtc.o(i.RTC_SetAlarm) refers to stm32f10x_rtc.o(i.RTC_ExitConfigMode) for RTC_ExitConfigMode
    stm32f10x_rtc.o(i.RTC_SetCounter) refers to stm32f10x_rtc.o(i.RTC_EnterConfigMode) for RTC_EnterConfigMode
    stm32f10x_rtc.o(i.RTC_SetCounter) refers to stm32f10x_rtc.o(i.RTC_ExitConfigMode) for RTC_ExitConfigMode
    stm32f10x_rtc.o(i.RTC_SetPrescaler) refers to stm32f10x_rtc.o(i.RTC_EnterConfigMode) for RTC_EnterConfigMode
    stm32f10x_rtc.o(i.RTC_SetPrescaler) refers to stm32f10x_rtc.o(i.RTC_ExitConfigMode) for RTC_ExitConfigMode
    stm32f10x_bkp.o(i.BKP_DeInit) refers to stm32f10x_rcc.o(i.RCC_BackupResetCmd) for RCC_BackupResetCmd
    stm32f10x_pwr.o(i.PWR_DeInit) refers to stm32f10x_rcc.o(i.RCC_APB1PeriphResetCmd) for RCC_APB1PeriphResetCmd
    stm32f10x_spi.o(i.I2S_Init) refers to stm32f10x_rcc.o(i.RCC_GetClocksFreq) for RCC_GetClocksFreq
    stm32f10x_spi.o(i.SPI_I2S_DeInit) refers to stm32f10x_rcc.o(i.RCC_APB2PeriphResetCmd) for RCC_APB2PeriphResetCmd
    stm32f10x_spi.o(i.SPI_I2S_DeInit) refers to stm32f10x_rcc.o(i.RCC_APB1PeriphResetCmd) for RCC_APB1PeriphResetCmd
    stm32f10x_flash.o(i.FLASH_EnableWriteProtection) refers to stm32f10x_flash.o(i.FLASH_WaitForLastOperation) for FLASH_WaitForLastOperation
    stm32f10x_flash.o(i.FLASH_EraseAllBank1Pages) refers to stm32f10x_flash.o(i.FLASH_WaitForLastBank1Operation) for FLASH_WaitForLastBank1Operation
    stm32f10x_flash.o(i.FLASH_EraseAllPages) refers to stm32f10x_flash.o(i.FLASH_WaitForLastOperation) for FLASH_WaitForLastOperation
    stm32f10x_flash.o(i.FLASH_EraseOptionBytes) refers to stm32f10x_flash.o(i.FLASH_GetReadOutProtectionStatus) for FLASH_GetReadOutProtectionStatus
    stm32f10x_flash.o(i.FLASH_EraseOptionBytes) refers to stm32f10x_flash.o(i.FLASH_WaitForLastOperation) for FLASH_WaitForLastOperation
    stm32f10x_flash.o(i.FLASH_ErasePage) refers to stm32f10x_flash.o(i.FLASH_WaitForLastOperation) for FLASH_WaitForLastOperation
    stm32f10x_flash.o(i.FLASH_ProgramHalfWord) refers to stm32f10x_flash.o(i.FLASH_WaitForLastOperation) for FLASH_WaitForLastOperation
    stm32f10x_flash.o(i.FLASH_ProgramOptionByteData) refers to stm32f10x_flash.o(i.FLASH_WaitForLastOperation) for FLASH_WaitForLastOperation
    stm32f10x_flash.o(i.FLASH_ProgramWord) refers to stm32f10x_flash.o(i.FLASH_WaitForLastOperation) for FLASH_WaitForLastOperation
    stm32f10x_flash.o(i.FLASH_ReadOutProtection) refers to stm32f10x_flash.o(i.FLASH_WaitForLastOperation) for FLASH_WaitForLastOperation
    stm32f10x_flash.o(i.FLASH_UserOptionByteConfig) refers to stm32f10x_flash.o(i.FLASH_WaitForLastOperation) for FLASH_WaitForLastOperation
    stm32f10x_flash.o(i.FLASH_WaitForLastBank1Operation) refers to stm32f10x_flash.o(i.FLASH_GetBank1Status) for FLASH_GetBank1Status
    stm32f10x_flash.o(i.FLASH_WaitForLastOperation) refers to stm32f10x_flash.o(i.FLASH_GetBank1Status) for FLASH_GetBank1Status
    stm32f10x_adc.o(i.ADC_DeInit) refers to stm32f10x_rcc.o(i.RCC_APB2PeriphResetCmd) for RCC_APB2PeriphResetCmd
    stm32f10x_tim.o(i.TIM_DeInit) refers to stm32f10x_rcc.o(i.RCC_APB2PeriphResetCmd) for RCC_APB2PeriphResetCmd
    stm32f10x_tim.o(i.TIM_DeInit) refers to stm32f10x_rcc.o(i.RCC_APB1PeriphResetCmd) for RCC_APB1PeriphResetCmd
    stm32f10x_tim.o(i.TIM_ETRClockMode1Config) refers to stm32f10x_tim.o(i.TIM_ETRConfig) for TIM_ETRConfig
    stm32f10x_tim.o(i.TIM_ETRClockMode2Config) refers to stm32f10x_tim.o(i.TIM_ETRConfig) for TIM_ETRConfig
    stm32f10x_tim.o(i.TIM_ICInit) refers to stm32f10x_tim.o(i.TI1_Config) for TI1_Config
    stm32f10x_tim.o(i.TIM_ICInit) refers to stm32f10x_tim.o(i.TIM_SetIC1Prescaler) for TIM_SetIC1Prescaler
    stm32f10x_tim.o(i.TIM_ICInit) refers to stm32f10x_tim.o(i.TI2_Config) for TI2_Config
    stm32f10x_tim.o(i.TIM_ICInit) refers to stm32f10x_tim.o(i.TIM_SetIC2Prescaler) for TIM_SetIC2Prescaler
    stm32f10x_tim.o(i.TIM_ICInit) refers to stm32f10x_tim.o(i.TI3_Config) for TI3_Config
    stm32f10x_tim.o(i.TIM_ICInit) refers to stm32f10x_tim.o(i.TIM_SetIC3Prescaler) for TIM_SetIC3Prescaler
    stm32f10x_tim.o(i.TIM_ICInit) refers to stm32f10x_tim.o(i.TI4_Config) for TI4_Config
    stm32f10x_tim.o(i.TIM_ICInit) refers to stm32f10x_tim.o(i.TIM_SetIC4Prescaler) for TIM_SetIC4Prescaler
    stm32f10x_tim.o(i.TIM_ITRxExternalClockConfig) refers to stm32f10x_tim.o(i.TIM_SelectInputTrigger) for TIM_SelectInputTrigger
    stm32f10x_tim.o(i.TIM_PWMIConfig) refers to stm32f10x_tim.o(i.TI1_Config) for TI1_Config
    stm32f10x_tim.o(i.TIM_PWMIConfig) refers to stm32f10x_tim.o(i.TIM_SetIC1Prescaler) for TIM_SetIC1Prescaler
    stm32f10x_tim.o(i.TIM_PWMIConfig) refers to stm32f10x_tim.o(i.TI2_Config) for TI2_Config
    stm32f10x_tim.o(i.TIM_PWMIConfig) refers to stm32f10x_tim.o(i.TIM_SetIC2Prescaler) for TIM_SetIC2Prescaler
    stm32f10x_tim.o(i.TIM_TIxExternalClockConfig) refers to stm32f10x_tim.o(i.TI2_Config) for TI2_Config
    stm32f10x_tim.o(i.TIM_TIxExternalClockConfig) refers to stm32f10x_tim.o(i.TI1_Config) for TI1_Config
    stm32f10x_tim.o(i.TIM_TIxExternalClockConfig) refers to stm32f10x_tim.o(i.TIM_SelectInputTrigger) for TIM_SelectInputTrigger
    stm32f10x_can.o(i.CAN_DeInit) refers to stm32f10x_rcc.o(i.RCC_APB1PeriphResetCmd) for RCC_APB1PeriphResetCmd
    stm32f10x_can.o(i.CAN_GetITStatus) refers to stm32f10x_can.o(i.CheckITStatus) for CheckITStatus
    stm32f10x_it.o(i.DMA1_Channel1_IRQHandler) refers to stm32f10x_dma.o(i.DMA_GetFlagStatus) for DMA_GetFlagStatus
    stm32f10x_it.o(i.DMA1_Channel1_IRQHandler) refers to stm32f10x_dma.o(i.DMA_ClearITPendingBit) for DMA_ClearITPendingBit
    stm32f10x_it.o(i.DMA1_Channel1_IRQHandler) refers to stm32f10x_it.o(.bss) for adc_val
    stm32f10x_it.o(i.DMA1_Channel1_IRQHandler) refers to syspara.o(.bss) for sys_misc_run_struct
    stm32f10x_it.o(i.DMA1_Channel1_IRQHandler) refers to stm32f10x_it.o(.data) for s_conv_counter
    stm32f10x_it.o(i.EXTI15_10_IRQHandler) refers to stm32f10x_exti.o(i.EXTI_GetITStatus) for EXTI_GetITStatus
    stm32f10x_it.o(i.EXTI15_10_IRQHandler) refers to stm32f10x_exti.o(i.EXTI_ClearITPendingBit) for EXTI_ClearITPendingBit
    stm32f10x_it.o(i.EXTI9_5_IRQHandler) refers to stm32f10x_exti.o(i.EXTI_GetITStatus) for EXTI_GetITStatus
    stm32f10x_it.o(i.EXTI9_5_IRQHandler) refers to stm32f10x_exti.o(i.EXTI_ClearITPendingBit) for EXTI_ClearITPendingBit
    stm32f10x_it.o(i.EXTI9_5_IRQHandler) refers to gprs.o(.bss) for gsm_misc_struct
    stm32f10x_it.o(i.EXTI9_5_IRQHandler) refers to syspara.o(.bss) for sys_misc_run_struct
    stm32f10x_it.o(i.PVD_IRQHandler) refers to stm32f10x_exti.o(i.EXTI_ClearITPendingBit) for EXTI_ClearITPendingBit
    stm32f10x_it.o(i.PVD_IRQHandler) refers to stm32f10x_pwr.o(i.PWR_GetFlagStatus) for PWR_GetFlagStatus
    stm32f10x_it.o(i.RTCAlarm_IRQHandler) refers to stm32f10x_rtc.o(i.RTC_GetITStatus) for RTC_GetITStatus
    stm32f10x_it.o(i.RTCAlarm_IRQHandler) refers to stm32f10x_exti.o(i.EXTI_ClearITPendingBit) for EXTI_ClearITPendingBit
    stm32f10x_it.o(i.RTCAlarm_IRQHandler) refers to stm32f10x_rtc.o(i.RTC_WaitForLastTask) for RTC_WaitForLastTask
    stm32f10x_it.o(i.RTCAlarm_IRQHandler) refers to stm32f10x_rtc.o(i.RTC_ClearITPendingBit) for RTC_ClearITPendingBit
    stm32f10x_it.o(i.RTC_IRQHandler) refers to stm32f10x_rtc.o(i.RTC_GetITStatus) for RTC_GetITStatus
    stm32f10x_it.o(i.RTC_IRQHandler) refers to stm32f10x_rtc.o(i.RTC_ClearITPendingBit) for RTC_ClearITPendingBit
    stm32f10x_it.o(i.RTC_IRQHandler) refers to syspara.o(i.SysKeyDataSave) for SysKeyDataSave
    stm32f10x_it.o(i.RTC_IRQHandler) refers to syspara.o(.bss) for sys_misc_run_struct
    stm32f10x_it.o(i.SysTick_Handler) refers to stm32f10x_gpio.o(i.GPIO_ReadInputDataBit) for GPIO_ReadInputDataBit
    stm32f10x_it.o(i.SysTick_Handler) refers to syspara.o(.bss) for sys_misc_run_struct
    stm32f10x_it.o(i.SysTick_Handler) refers to gprs.o(.bss) for gsm_misc_struct
    stm32f10x_it.o(i.UART4_IRQHandler) refers to stm32f10x_usart.o(i.USART_GetITStatus) for USART_GetITStatus
    stm32f10x_it.o(i.UART4_IRQHandler) refers to stm32f10x_usart.o(i.USART_ReceiveData) for USART_ReceiveData
    stm32f10x_it.o(i.UART4_IRQHandler) refers to driver.o(.bss) for g_meter_uart_struct
    stm32f10x_it.o(i.USART1_IRQHandler) refers to stm32f10x_usart.o(i.USART_GetITStatus) for USART_GetITStatus
    stm32f10x_it.o(i.USART1_IRQHandler) refers to stm32f10x_usart.o(i.USART_ReceiveData) for USART_ReceiveData
    stm32f10x_it.o(i.USART1_IRQHandler) refers to driver.o(.bss) for g_local_uart_struct
    stm32f10x_it.o(i.USART2_IRQHandler) refers to stm32f10x_usart.o(i.USART_GetITStatus) for USART_GetITStatus
    stm32f10x_it.o(i.USART2_IRQHandler) refers to stm32f10x_usart.o(i.USART_ReceiveData) for USART_ReceiveData
    stm32f10x_it.o(i.USART2_IRQHandler) refers to driver.o(.bss) for g_gps_uart_struct
    stm32f10x_it.o(i.USART3_IRQHandler) refers to stm32f10x_usart.o(i.USART_GetITStatus) for USART_GetITStatus
    stm32f10x_it.o(i.USART3_IRQHandler) refers to stm32f10x_usart.o(i.USART_ReceiveData) for USART_ReceiveData
    stm32f10x_it.o(i.USART3_IRQHandler) refers to driver.o(.bss) for g_gprs_uart_struct
    stm32f10x_it.o(i.USART3_IRQHandler) refers to driver.o(.data) for g_gprs_usart_struct
    stm32f10x_it.o(i.USART3_IRQHandler) refers to gprs.o(.bss) for gsm_misc_struct
    stm32f10x_it.o(i.USB_LP_CAN1_RX0_IRQHandler) refers to can.o(i.CanRx) for CanRx
    driver.o(i.AdcInit) refers to stm32f10x_rcc.o(i.RCC_APB2PeriphClockCmd) for RCC_APB2PeriphClockCmd
    driver.o(i.AdcInit) refers to stm32f10x_gpio.o(i.GPIO_Init) for GPIO_Init
    driver.o(i.AdcInit) refers to stm32f10x_adc.o(i.ADC_Init) for ADC_Init
    driver.o(i.AdcInit) refers to stm32f10x_adc.o(i.ADC_RegularChannelConfig) for ADC_RegularChannelConfig
    driver.o(i.AdcInit) refers to stm32f10x_adc.o(i.ADC_DMACmd) for ADC_DMACmd
    driver.o(i.AdcInit) refers to stm32f10x_adc.o(i.ADC_Cmd) for ADC_Cmd
    driver.o(i.AdcInit) refers to stm32f10x_adc.o(i.ADC_ResetCalibration) for ADC_ResetCalibration
    driver.o(i.AdcInit) refers to stm32f10x_adc.o(i.ADC_GetResetCalibrationStatus) for ADC_GetResetCalibrationStatus
    driver.o(i.AdcInit) refers to stm32f10x_adc.o(i.ADC_StartCalibration) for ADC_StartCalibration
    driver.o(i.AdcInit) refers to stm32f10x_adc.o(i.ADC_GetCalibrationStatus) for ADC_GetCalibrationStatus
    driver.o(i.DmaInit) refers to stm32f10x_rcc.o(i.RCC_AHBPeriphClockCmd) for RCC_AHBPeriphClockCmd
    driver.o(i.DmaInit) refers to stm32f10x_dma.o(i.DMA_DeInit) for DMA_DeInit
    driver.o(i.DmaInit) refers to stm32f10x_dma.o(i.DMA_Init) for DMA_Init
    driver.o(i.DmaInit) refers to stm32f10x_dma.o(i.DMA_Cmd) for DMA_Cmd
    driver.o(i.DmaInit) refers to stm32f10x_dma.o(i.DMA_ITConfig) for DMA_ITConfig
    driver.o(i.DmaInit) refers to misc.o(i.NVIC_Init) for NVIC_Init
    driver.o(i.DmaInit) refers to syspara.o(.bss) for sys_misc_run_struct
    driver.o(i.DriverMain) refers to driver.o(i.GpsUartIsRxDone) for GpsUartIsRxDone
    driver.o(i.DriverMain) refers to driver.o(i.LocalUartIsRxDone) for LocalUartIsRxDone
    driver.o(i.DriverMain) refers to driver.o(i.GprsUartIsRxDone) for GprsUartIsRxDone
    driver.o(i.DriverMain) refers to driver.o(i.MeterUartIsRxDone) for MeterUartIsRxDone
    driver.o(i.DriverMain) refers to syspara.o(.bss) for sys_misc_run_struct
    driver.o(i.DriverMain) refers to driver.o(.data) for sys_tick_cur_val
    driver.o(i.ExitInit) refers to stm32f10x_exti.o(i.EXTI_ClearITPendingBit) for EXTI_ClearITPendingBit
    driver.o(i.ExitInit) refers to stm32f10x_exti.o(i.EXTI_Init) for EXTI_Init
    driver.o(i.ExitInit) refers to misc.o(i.NVIC_Init) for NVIC_Init
    driver.o(i.FeedWtd) refers to stm32f10x_iwdg.o(i.IWDG_ReloadCounter) for IWDG_ReloadCounter
    driver.o(i.FeedWtd) refers to syspara.o(.bss) for sys_misc_run_struct
    driver.o(i.GetGprsUartRxData) refers to driver.o(.data) for g_gprs_usart_struct
    driver.o(i.GetGprsUartRxData) refers to gprs.o(.bss) for gsm_misc_struct
    driver.o(i.GetGprsUartRxData) refers to driver.o(.bss) for g_gprs_uart_struct
    driver.o(i.GetGpsUartRxData) refers to selfdef.o(i.MemCpy) for MemCpy
    driver.o(i.GetGpsUartRxData) refers to driver.o(i.GpsUartParaInit) for GpsUartParaInit
    driver.o(i.GetGpsUartRxData) refers to driver.o(.bss) for g_gps_uart_struct
    driver.o(i.GetLocalUartRxData) refers to selfdef.o(i.MemCpy) for MemCpy
    driver.o(i.GetLocalUartRxData) refers to driver.o(i.LocalUartParaInit) for LocalUartParaInit
    driver.o(i.GetLocalUartRxData) refers to driver.o(.bss) for g_local_uart_struct
    driver.o(i.GetMeterUartRxData) refers to selfdef.o(i.MemCpy) for MemCpy
    driver.o(i.GetMeterUartRxData) refers to driver.o(.bss) for g_meter_uart_struct
    driver.o(i.GpioInit) refers to stm32f10x_rcc.o(i.RCC_APB2PeriphClockCmd) for RCC_APB2PeriphClockCmd
    driver.o(i.GpioInit) refers to stm32f10x_gpio.o(i.GPIO_Init) for GPIO_Init
    driver.o(i.GpioInit) refers to stm32f10x_gpio.o(i.GPIO_SetBits) for GPIO_SetBits
    driver.o(i.GpioInit) refers to stm32f10x_gpio.o(i.GPIO_ResetBits) for GPIO_ResetBits
    driver.o(i.GpioInit) refers to driver.o(i.UsartGprsDeInit) for UsartGprsDeInit
    driver.o(i.GprsUartFixedLenSend) refers to stm32f10x_usart.o(i.USART_SendData) for USART_SendData
    driver.o(i.GprsUartFixedLenSend) refers to stm32f10x_usart.o(i.USART_GetFlagStatus) for USART_GetFlagStatus
    driver.o(i.GprsUartIsRxDone) refers to driver.o(.bss) for g_gprs_uart_struct
    driver.o(i.GprsUartIsRxDone) refers to driver.o(.data) for g_gprs_usart_struct
    driver.o(i.GprsUartParaInit) refers to driver.o(.data) for g_gprs_usart_struct
    driver.o(i.GprsUartParaInit) refers to driver.o(.bss) for g_gprs_uart_struct
    driver.o(i.GpsUartIsRxDone) refers to driver.o(.bss) for g_gps_uart_struct
    driver.o(i.GpsUartParaInit) refers to driver.o(.bss) for g_gps_uart_struct
    driver.o(i.GpsUsartIsRxDone) refers to driver.o(.bss) for g_gps_uart_struct
    driver.o(i.IwdgInit) refers to stm32f10x_iwdg.o(i.IWDG_WriteAccessCmd) for IWDG_WriteAccessCmd
    driver.o(i.IwdgInit) refers to stm32f10x_iwdg.o(i.IWDG_SetPrescaler) for IWDG_SetPrescaler
    driver.o(i.IwdgInit) refers to stm32f10x_iwdg.o(i.IWDG_SetReload) for IWDG_SetReload
    driver.o(i.IwdgInit) refers to stm32f10x_iwdg.o(i.IWDG_ReloadCounter) for IWDG_ReloadCounter
    driver.o(i.IwdgInit) refers to stm32f10x_iwdg.o(i.IWDG_Enable) for IWDG_Enable
    driver.o(i.LocalDebug) refers to driver.o(i.FeedWtd) for FeedWtd
    driver.o(i.LocalDebug) refers to driver.o(i.LocalUartFixedLenSend) for LocalUartFixedLenSend
    driver.o(i.LocalDebug) refers to syspara.o(.bss) for sys_misc_run_struct
    driver.o(i.LocalUartFixedLenSend) refers to stm32f10x_usart.o(i.USART_SendData) for USART_SendData
    driver.o(i.LocalUartFixedLenSend) refers to stm32f10x_usart.o(i.USART_GetFlagStatus) for USART_GetFlagStatus
    driver.o(i.LocalUartIsRxDone) refers to driver.o(.bss) for g_local_uart_struct
    driver.o(i.LocalUartParaInit) refers to driver.o(.bss) for g_local_uart_struct
    driver.o(i.MeterUartFixedLenSend) refers to stm32f10x_usart.o(i.USART_SendData) for USART_SendData
    driver.o(i.MeterUartFixedLenSend) refers to stm32f10x_usart.o(i.USART_GetFlagStatus) for USART_GetFlagStatus
    driver.o(i.MeterUartIsRxDone) refers to driver.o(.bss) for g_meter_uart_struct
    driver.o(i.MeterUartParaInit) refers to driver.o(.bss) for g_meter_uart_struct
    driver.o(i.PvdInit) refers to misc.o(i.NVIC_Init) for NVIC_Init
    driver.o(i.PvdInit) refers to stm32f10x_rcc.o(i.RCC_APB1PeriphClockCmd) for RCC_APB1PeriphClockCmd
    driver.o(i.PvdInit) refers to stm32f10x_pwr.o(i.PWR_PVDLevelConfig) for PWR_PVDLevelConfig
    driver.o(i.PvdInit) refers to stm32f10x_pwr.o(i.PWR_PVDCmd) for PWR_PVDCmd
    driver.o(i.PvdInit) refers to stm32f10x_exti.o(i.EXTI_StructInit) for EXTI_StructInit
    driver.o(i.PvdInit) refers to stm32f10x_exti.o(i.EXTI_Init) for EXTI_Init
    driver.o(i.RtcConfiguration) refers to stm32f10x_rcc.o(i.RCC_APB1PeriphClockCmd) for RCC_APB1PeriphClockCmd
    driver.o(i.RtcConfiguration) refers to stm32f10x_pwr.o(i.PWR_BackupAccessCmd) for PWR_BackupAccessCmd
    driver.o(i.RtcConfiguration) refers to stm32f10x_bkp.o(i.BKP_DeInit) for BKP_DeInit
    driver.o(i.RtcConfiguration) refers to stm32f10x_rcc.o(i.RCC_LSEConfig) for RCC_LSEConfig
    driver.o(i.RtcConfiguration) refers to driver.o(i.FeedWtd) for FeedWtd
    driver.o(i.RtcConfiguration) refers to selfdef.o(i.LongTimeDly) for LongTimeDly
    driver.o(i.RtcConfiguration) refers to stm32f10x_rcc.o(i.RCC_GetFlagStatus) for RCC_GetFlagStatus
    driver.o(i.RtcConfiguration) refers to stm32f10x_rcc.o(i.RCC_RTCCLKConfig) for RCC_RTCCLKConfig
    driver.o(i.RtcConfiguration) refers to stm32f10x_rcc.o(i.RCC_RTCCLKCmd) for RCC_RTCCLKCmd
    driver.o(i.RtcConfiguration) refers to stm32f10x_rtc.o(i.RTC_WaitForSynchro) for RTC_WaitForSynchro
    driver.o(i.RtcConfiguration) refers to stm32f10x_rtc.o(i.RTC_WaitForLastTask) for RTC_WaitForLastTask
    driver.o(i.RtcConfiguration) refers to stm32f10x_rtc.o(i.RTC_ITConfig) for RTC_ITConfig
    driver.o(i.RtcConfiguration) refers to stm32f10x_rtc.o(i.RTC_SetPrescaler) for RTC_SetPrescaler
    driver.o(i.RtcGetCalendarTime) refers to stm32f10x_rtc.o(i.RTC_GetCounter) for RTC_GetCounter
    driver.o(i.RtcGetCalendarTime) refers to localtime.o(.text) for localtime
    driver.o(i.RtcInit) refers to driver.o(i.RtcConfiguration) for RtcConfiguration
    driver.o(i.RtcInit) refers to driver.o(i.RtcSetCalendarTime) for RtcSetCalendarTime
    driver.o(i.RtcInit) refers to misc.o(i.NVIC_Init) for NVIC_Init
    driver.o(i.RtcSetCalendarTime) refers to stm32f10x_rtc.o(i.RTC_ITConfig) for RTC_ITConfig
    driver.o(i.RtcSetCalendarTime) refers to mktime.o(.text) for mktime
    driver.o(i.RtcSetCalendarTime) refers to stm32f10x_rtc.o(i.RTC_WaitForLastTask) for RTC_WaitForLastTask
    driver.o(i.RtcSetCalendarTime) refers to stm32f10x_rtc.o(i.RTC_SetCounter) for RTC_SetCounter
    driver.o(i.RtcSetCalendarTime) refers to syspara.o(.bss) for sys_work_para_struct
    driver.o(i.SysClkConfigStop) refers to stm32f10x_rcc.o(i.RCC_HSEConfig) for RCC_HSEConfig
    driver.o(i.SysClkConfigStop) refers to stm32f10x_rcc.o(i.RCC_WaitForHSEStartUp) for RCC_WaitForHSEStartUp
    driver.o(i.SysClkConfigStop) refers to stm32f10x_rcc.o(i.RCC_PLLCmd) for RCC_PLLCmd
    driver.o(i.SysClkConfigStop) refers to stm32f10x_rcc.o(i.RCC_GetFlagStatus) for RCC_GetFlagStatus
    driver.o(i.SysClkConfigStop) refers to stm32f10x_rcc.o(i.RCC_SYSCLKConfig) for RCC_SYSCLKConfig
    driver.o(i.SysClkConfigStop) refers to stm32f10x_rcc.o(i.RCC_GetSYSCLKSource) for RCC_GetSYSCLKSource
    driver.o(i.SysTickInit) refers to stm32f10x_rcc.o(i.RCC_GetClocksFreq) for RCC_GetClocksFreq
    driver.o(i.UsartGprsDeInit) refers to stm32f10x_gpio.o(i.GPIO_Init) for GPIO_Init
    driver.o(i.UsartInit) refers to stm32f10x_rcc.o(i.RCC_APB2PeriphClockCmd) for RCC_APB2PeriphClockCmd
    driver.o(i.UsartInit) refers to stm32f10x_gpio.o(i.GPIO_Init) for GPIO_Init
    driver.o(i.UsartInit) refers to misc.o(i.NVIC_Init) for NVIC_Init
    driver.o(i.UsartInit) refers to stm32f10x_rcc.o(i.RCC_APB1PeriphClockCmd) for RCC_APB1PeriphClockCmd
    driver.o(i.UsartInit) refers to stm32f10x_usart.o(i.USART_Init) for USART_Init
    driver.o(i.UsartInit) refers to stm32f10x_usart.o(i.USART_ITConfig) for USART_ITConfig
    driver.o(i.UsartInit) refers to stm32f10x_usart.o(i.USART_Cmd) for USART_Cmd
    driver.o(i.UsartInit) refers to driver.o(.bss) for local_uart_buf
    syspara.o(i.GetAccAtatistic) refers to syspara.o(.bss) for sys_work_para_struct
    syspara.o(i.GetApn) refers to selfdef.o(i.StrLen) for StrLen
    syspara.o(i.GetApn) refers to selfdef.o(i.MemCpy) for MemCpy
    syspara.o(i.GetApn) refers to syspara.o(.bss) for sys_private_para_struct
    syspara.o(i.GetHardwareVersion) refers to selfdef.o(i.MemCpy) for MemCpy
    syspara.o(i.GetHardwareVersion) refers to syspara.o(.bss) for sys_serial_struct
    syspara.o(i.GetLowVoltageAlarm) refers to syspara.o(.bss) for sys_private_para_struct
    syspara.o(i.GetLsnalLockEnableFlag) refers to syspara.o(.bss) for sys_private_para_struct
    syspara.o(i.GetLsnalLockPara) refers to syspara.o(.bss) for sys_private_para_struct
    syspara.o(i.GetMasterIp) refers to selfdef.o(i.MemCpy) for MemCpy
    syspara.o(i.GetMasterIp) refers to syspara.o(.bss) for sys_private_para_struct
    syspara.o(i.GetMeterErrTimer) refers to syspara.o(.bss) for sys_private_para_struct
    syspara.o(i.GetOverSpeed) refers to syspara.o(.bss) for sys_private_para_struct
    syspara.o(i.GetPort) refers to syspara.o(.bss) for sys_private_para_struct
    syspara.o(i.GetSlaverIp) refers to selfdef.o(i.MemCpy) for MemCpy
    syspara.o(i.GetSlaverIp) refers to syspara.o(.bss) for sys_private_para_struct
    syspara.o(i.GetSleepTimer) refers to syspara.o(.bss) for sys_private_para_struct
    syspara.o(i.GetSmsAlarmCenterNum) refers to selfdef.o(i.StrLen) for StrLen
    syspara.o(i.GetSmsAlarmCenterNum) refers to selfdef.o(i.MemCpy) for MemCpy
    syspara.o(i.GetSmsAlarmCenterNum) refers to syspara.o(.bss) for sys_private_para_struct
    syspara.o(i.GetSoftWareVersion) refers to selfdef.o(i.StrLen) for StrLen
    syspara.o(i.GetSoftWareVersion) refers to selfdef.o(i.MemCpy) for MemCpy
    syspara.o(i.GetSoftWareVersion) refers to syspara.o(.constdata) for sys_const_para_struct
    syspara.o(i.GetTerminalId) refers to selfdef.o(i.MemCpy) for MemCpy
    syspara.o(i.GetTerminalId) refers to syspara.o(.bss) for sys_private_para_struct
    syspara.o(i.GetTerminalPassword) refers to syspara.o(.bss) for sys_private_para_struct
    syspara.o(i.GetTerminalSerialNum) refers to selfdef.o(i.MemCpy) for MemCpy
    syspara.o(i.GetTerminalSerialNum) refers to syspara.o(.bss) for sys_serial_struct
    syspara.o(i.GetWorkPara) refers to syspara.o(.bss) for sys_private_para_struct
    syspara.o(i.LockRecord) refers to driver.o(i.RtcGetCalendarTime) for RtcGetCalendarTime
    syspara.o(i.LockRecord) refers to selfdef.o(i.MemCpy) for MemCpy
    syspara.o(i.LockRecord) refers to syspara.o(i.LockRecordWrite) for LockRecordWrite
    syspara.o(i.LockRecord) refers to syspara.o(.bss) for lock_record_struct
    syspara.o(i.LockRecordRead) refers to fram.o(i.SpiFramRead) for SpiFramRead
    syspara.o(i.LockRecordRead) refers to syspara.o(.bss) for lock_record_struct
    syspara.o(i.LockRecordWrite) refers to fram.o(i.SpiFramWrite) for SpiFramWrite
    syspara.o(i.LockRecordWrite) refers to syspara.o(.bss) for lock_record_struct
    syspara.o(i.ParaCorrespond) refers to syspara.o(.constdata) for serial_comm_struct
    syspara.o(i.ParaRecover) refers to syspara.o(i.SysBootParaWrite) for SysBootParaWrite
    syspara.o(i.ParaRecover) refers to syspara.o(.bss) for sys_boot_para_struct
    syspara.o(i.QuerySysPrivatePara) refers to syspara.o(i.ParaCorrespond) for ParaCorrespond
    syspara.o(i.QuerySysPrivatePara) refers to syspara.o(i.GetSmsAlarmCenterNum) for GetSmsAlarmCenterNum
    syspara.o(i.QuerySysPrivatePara) refers to syspara.o(i.GetApn) for GetApn
    syspara.o(i.QuerySysPrivatePara) refers to syspara.o(i.GetMasterIp) for GetMasterIp
    syspara.o(i.QuerySysPrivatePara) refers to syspara.o(i.GetSlaverIp) for GetSlaverIp
    syspara.o(i.QuerySysPrivatePara) refers to syspara.o(i.GetPort) for GetPort
    syspara.o(i.QuerySysPrivatePara) refers to syspara.o(i.GetTerminalId) for GetTerminalId
    syspara.o(i.QuerySysPrivatePara) refers to syspara.o(i.GetSoftWareVersion) for GetSoftWareVersion
    syspara.o(i.QuerySysPrivatePara) refers to syspara.o(i.GetTerminalSerialNum) for GetTerminalSerialNum
    syspara.o(i.QuerySysPrivatePara) refers to syspara.o(i.GetHardwareVersion) for GetHardwareVersion
    syspara.o(i.QuerySysPrivatePara) refers to syspara.o(i.GetSleepTimer) for GetSleepTimer
    syspara.o(i.QuerySysPrivatePara) refers to syspara.o(i.GetAccAtatistic) for GetAccAtatistic
    syspara.o(i.QuerySysPrivatePara) refers to syspara.o(i.GetMeterErrTimer) for GetMeterErrTimer
    syspara.o(i.QuerySysPrivatePara) refers to syspara.o(i.GetOverSpeed) for GetOverSpeed
    syspara.o(i.QuerySysPrivatePara) refers to syspara.o(i.GetLowVoltageAlarm) for GetLowVoltageAlarm
    syspara.o(i.QuerySysPrivatePara) refers to syspara.o(i.GetLsnalLockEnableFlag) for GetLsnalLockEnableFlag
    syspara.o(i.QuerySysPrivatePara) refers to syspara.o(i.GetTerminalPassword) for GetTerminalPassword
    syspara.o(i.QuerySysPrivatePara) refers to syspara.o(i.GetWorkPara) for GetWorkPara
    syspara.o(i.QuerySysPrivatePara) refers to syspara.o(i.GetLsnalLockPara) for GetLsnalLockPara
    syspara.o(i.QuerySysPrivatePara) refers to syspara.o(.bss) for sys_misc_run_struct
    syspara.o(i.SetAccStatistic) refers to fram.o(i.SpiFramWrite) for SpiFramWrite
    syspara.o(i.SetAccStatistic) refers to syspara.o(.bss) for sys_work_para_struct
    syspara.o(i.SetApn) refers to selfdef.o(i.IsValidChar) for IsValidChar
    syspara.o(i.SetApn) refers to selfdef.o(i.MemCpy) for MemCpy
    syspara.o(i.SetApn) refers to syspara.o(i.SysPrivateParaWrite) for SysPrivateParaWrite
    syspara.o(i.SetApn) refers to syspara.o(.bss) for sys_private_para_struct
    syspara.o(i.SetHardwareVersion) refers to selfdef.o(i.IsValidNum) for IsValidNum
    syspara.o(i.SetHardwareVersion) refers to selfdef.o(i.MemCpy) for MemCpy
    syspara.o(i.SetHardwareVersion) refers to syspara.o(i.SysSerialWrite) for SysSerialWrite
    syspara.o(i.SetHardwareVersion) refers to syspara.o(.bss) for sys_serial_struct
    syspara.o(i.SetLowVoltageAlarm) refers to selfdef.o(i.MemCpy) for MemCpy
    syspara.o(i.SetLowVoltageAlarm) refers to syspara.o(i.SysPrivateParaWrite) for SysPrivateParaWrite
    syspara.o(i.SetLowVoltageAlarm) refers to syspara.o(.bss) for sys_private_para_struct
    syspara.o(i.SetLsnalLockEnableFlag) refers to syspara.o(i.SysPrivateParaWrite) for SysPrivateParaWrite
    syspara.o(i.SetLsnalLockEnableFlag) refers to syspara.o(.bss) for sys_private_para_struct
    syspara.o(i.SetLsnalLockPara) refers to syspara.o(i.SysPrivateParaWrite) for SysPrivateParaWrite
    syspara.o(i.SetLsnalLockPara) refers to syspara.o(.bss) for sys_private_para_struct
    syspara.o(i.SetMasterIp) refers to selfdef.o(i.MemCpy) for MemCpy
    syspara.o(i.SetMasterIp) refers to syspara.o(i.SysPrivateParaWrite) for SysPrivateParaWrite
    syspara.o(i.SetMasterIp) refers to syspara.o(.bss) for sys_private_para_struct
    syspara.o(i.SetMasterIp) refers to protocol.o(.bss) for pro_struct
    syspara.o(i.SetMeterErrTimer) refers to syspara.o(i.SysPrivateParaWrite) for SysPrivateParaWrite
    syspara.o(i.SetMeterErrTimer) refers to syspara.o(.bss) for sys_private_para_struct
    syspara.o(i.SetOverSpeed) refers to selfdef.o(i.MemCpy) for MemCpy
    syspara.o(i.SetOverSpeed) refers to syspara.o(i.SysPrivateParaWrite) for SysPrivateParaWrite
    syspara.o(i.SetOverSpeed) refers to syspara.o(.bss) for sys_private_para_struct
    syspara.o(i.SetPort) refers to syspara.o(i.SysPrivateParaWrite) for SysPrivateParaWrite
    syspara.o(i.SetPort) refers to syspara.o(.bss) for sys_private_para_struct
    syspara.o(i.SetSlaverIp) refers to selfdef.o(i.MemCpy) for MemCpy
    syspara.o(i.SetSlaverIp) refers to syspara.o(i.SysPrivateParaWrite) for SysPrivateParaWrite
    syspara.o(i.SetSlaverIp) refers to syspara.o(.bss) for sys_private_para_struct
    syspara.o(i.SetSlaverIp) refers to protocol.o(.bss) for pro_struct
    syspara.o(i.SetSleepTimer) refers to syspara.o(i.SysPrivateParaWrite) for SysPrivateParaWrite
    syspara.o(i.SetSleepTimer) refers to syspara.o(.bss) for sys_private_para_struct
    syspara.o(i.SetSmsAlarmCenterNum) refers to selfdef.o(i.IsValidNum) for IsValidNum
    syspara.o(i.SetSmsAlarmCenterNum) refers to selfdef.o(i.MemCpy) for MemCpy
    syspara.o(i.SetSmsAlarmCenterNum) refers to syspara.o(i.SysPrivateParaWrite) for SysPrivateParaWrite
    syspara.o(i.SetSmsAlarmCenterNum) refers to syspara.o(.bss) for sys_private_para_struct
    syspara.o(i.SetSysPrivatePara) refers to syspara.o(i.ParaCorrespond) for ParaCorrespond
    syspara.o(i.SetSysPrivatePara) refers to syspara.o(i.SetSmsAlarmCenterNum) for SetSmsAlarmCenterNum
    syspara.o(i.SetSysPrivatePara) refers to syspara.o(i.SetApn) for SetApn
    syspara.o(i.SetSysPrivatePara) refers to syspara.o(i.SetMasterIp) for SetMasterIp
    syspara.o(i.SetSysPrivatePara) refers to syspara.o(i.SetSlaverIp) for SetSlaverIp
    syspara.o(i.SetSysPrivatePara) refers to syspara.o(i.SetPort) for SetPort
    syspara.o(i.SetSysPrivatePara) refers to syspara.o(i.SetTerminalId) for SetTerminalId
    syspara.o(i.SetSysPrivatePara) refers to syspara.o(i.SetTerminalPassword) for SetTerminalPassword
    syspara.o(i.SetSysPrivatePara) refers to syspara.o(i.ParaRecover) for ParaRecover
    syspara.o(i.SetSysPrivatePara) refers to syspara.o(i.SetTerminalSerialNum) for SetTerminalSerialNum
    syspara.o(i.SetSysPrivatePara) refers to syspara.o(i.SetHardwareVersion) for SetHardwareVersion
    syspara.o(i.SetSysPrivatePara) refers to syspara.o(i.SetSleepTimer) for SetSleepTimer
    syspara.o(i.SetSysPrivatePara) refers to syspara.o(i.SetAccStatistic) for SetAccStatistic
    syspara.o(i.SetSysPrivatePara) refers to syspara.o(i.SetMeterErrTimer) for SetMeterErrTimer
    syspara.o(i.SetSysPrivatePara) refers to syspara.o(i.SetOverSpeed) for SetOverSpeed
    syspara.o(i.SetSysPrivatePara) refers to syspara.o(i.SetLowVoltageAlarm) for SetLowVoltageAlarm
    syspara.o(i.SetSysPrivatePara) refers to syspara.o(i.SetLsnalLockEnableFlag) for SetLsnalLockEnableFlag
    syspara.o(i.SetSysPrivatePara) refers to syspara.o(i.SetWorkPara) for SetWorkPara
    syspara.o(i.SetSysPrivatePara) refers to syspara.o(i.SetLsnalLockPara) for SetLsnalLockPara
    syspara.o(i.SetSysPrivatePara) refers to syspara.o(.bss) for sys_misc_run_struct
    syspara.o(i.SetTerminalId) refers to sim.o(i.SimTermIdToAsciiNum) for SimTermIdToAsciiNum
    syspara.o(i.SetTerminalId) refers to sim.o(i.SimSetSimNum) for SimSetSimNum
    syspara.o(i.SetTerminalId) refers to selfdef.o(i.MemCpy) for MemCpy
    syspara.o(i.SetTerminalId) refers to syspara.o(i.SysPrivateParaWrite) for SysPrivateParaWrite
    syspara.o(i.SetTerminalId) refers to syspara.o(.bss) for sys_private_para_struct
    syspara.o(i.SetTerminalPassword) refers to syspara.o(i.SysPrivateParaWrite) for SysPrivateParaWrite
    syspara.o(i.SetTerminalPassword) refers to syspara.o(.bss) for sys_private_para_struct
    syspara.o(i.SetTerminalSerialNum) refers to selfdef.o(i.IsValidNumOrChar) for IsValidNumOrChar
    syspara.o(i.SetTerminalSerialNum) refers to selfdef.o(i.MemCpy) for MemCpy
    syspara.o(i.SetTerminalSerialNum) refers to syspara.o(i.SysSerialWrite) for SysSerialWrite
    syspara.o(i.SetTerminalSerialNum) refers to syspara.o(.bss) for sys_serial_struct
    syspara.o(i.SetWorkPara) refers to syspara.o(i.SysPrivateParaWrite) for SysPrivateParaWrite
    syspara.o(i.SetWorkPara) refers to syspara.o(.bss) for sys_private_para_struct
    syspara.o(i.SysBootParaRead) refers to flash.o(i.FlashRead) for FlashRead
    syspara.o(i.SysBootParaRead) refers to syspara.o(.bss) for sys_boot_para_struct
    syspara.o(i.SysBootParaWrite) refers to flash.o(i.FlashErase) for FlashErase
    syspara.o(i.SysBootParaWrite) refers to flash.o(i.FlashWrite) for FlashWrite
    syspara.o(i.SysBootParaWrite) refers to syspara.o(.bss) for sys_boot_para_struct
    syspara.o(i.SysCommParaInit) refers to selfdef.o(i.MemCpy) for MemCpy
    syspara.o(i.SysCommParaInit) refers to selfdef.o(i.StrLen) for StrLen
    syspara.o(i.SysCommParaInit) refers to syspara.o(.bss) for sys_private_para_struct
    syspara.o(i.SysDataRead) refers to fram.o(i.SpiFramRead) for SpiFramRead
    syspara.o(i.SysDataRead) refers to syspara.o(.bss) for sys_data_struct
    syspara.o(i.SysDataWrite) refers to fram.o(i.SpiFramWrite) for SpiFramWrite
    syspara.o(i.SysDataWrite) refers to syspara.o(.bss) for sys_data_struct
    syspara.o(i.SysKeyDataSave) refers to driver.o(i.RtcGetCalendarTime) for RtcGetCalendarTime
    syspara.o(i.SysKeyDataSave) refers to selfdef.o(i.MemCpy) for MemCpy
    syspara.o(i.SysKeyDataSave) refers to syspara.o(i.SysWorkParaWrite) for SysWorkParaWrite
    syspara.o(i.SysKeyDataSave) refers to fram.o(i.SpiFramWrite) for SpiFramWrite
    syspara.o(i.SysKeyDataSave) refers to syspara.o(.bss) for sys_work_para_struct
    syspara.o(i.SysParaRead) refers to syspara.o(i.SysBootParaRead) for SysBootParaRead
    syspara.o(i.SysParaRead) refers to syspara.o(i.SysPrivateParaInit) for SysPrivateParaInit
    syspara.o(i.SysParaRead) refers to syspara.o(i.SysWorkParaInit) for SysWorkParaInit
    syspara.o(i.SysParaRead) refers to can.o(i.CanDataInit) for CanDataInit
    syspara.o(i.SysParaRead) refers to syspara.o(i.LockRecordWrite) for LockRecordWrite
    syspara.o(i.SysParaRead) refers to syspara.o(i.SysPrivateParaWrite) for SysPrivateParaWrite
    syspara.o(i.SysParaRead) refers to syspara.o(i.SysWorkParaWrite) for SysWorkParaWrite
    syspara.o(i.SysParaRead) refers to syspara.o(i.SysDataWrite) for SysDataWrite
    syspara.o(i.SysParaRead) refers to syspara.o(i.SysBootParaWrite) for SysBootParaWrite
    syspara.o(i.SysParaRead) refers to syspara.o(i.SysSerialRead) for SysSerialRead
    syspara.o(i.SysParaRead) refers to syspara.o(i.SysPrivateParaRead) for SysPrivateParaRead
    syspara.o(i.SysParaRead) refers to selfdef.o(i.U8SumCheck) for U8SumCheck
    syspara.o(i.SysParaRead) refers to syspara.o(i.SysWorkParaRead) for SysWorkParaRead
    syspara.o(i.SysParaRead) refers to syspara.o(i.SysDataRead) for SysDataRead
    syspara.o(i.SysParaRead) refers to syspara.o(i.LockRecordRead) for LockRecordRead
    syspara.o(i.SysParaRead) refers to syspara.o(.bss) for sys_boot_para_struct
    syspara.o(i.SysPrivateParaInit) refers to syspara.o(i.SysCommParaInit) for SysCommParaInit
    syspara.o(i.SysPrivateParaInit) refers to selfdef.o(i.RamClear) for RamClear
    syspara.o(i.SysPrivateParaInit) refers to syspara.o(.bss) for sys_private_para_struct
    syspara.o(i.SysPrivateParaRead) refers to fram.o(i.SpiFramRead) for SpiFramRead
    syspara.o(i.SysPrivateParaRead) refers to syspara.o(.bss) for sys_private_para_struct
    syspara.o(i.SysPrivateParaWrite) refers to selfdef.o(i.U8SumCheck) for U8SumCheck
    syspara.o(i.SysPrivateParaWrite) refers to fram.o(i.SpiFramWrite) for SpiFramWrite
    syspara.o(i.SysPrivateParaWrite) refers to syspara.o(.bss) for sys_private_para_struct
    syspara.o(i.SysReset) refers to systask.o(i.SysNoTaskDelay) for SysNoTaskDelay
    syspara.o(i.SysSerialRead) refers to fram.o(i.SpiFramRead) for SpiFramRead
    syspara.o(i.SysSerialRead) refers to syspara.o(.bss) for sys_serial_struct
    syspara.o(i.SysSerialWrite) refers to fram.o(i.SpiFramWrite) for SpiFramWrite
    syspara.o(i.SysSerialWrite) refers to syspara.o(.bss) for sys_serial_struct
    syspara.o(i.SysVaryInit) refers to selfdef.o(i.MemCpy) for MemCpy
    syspara.o(i.SysVaryInit) refers to syspara.o(.bss) for sys_work_para_struct
    syspara.o(i.SysVaryInit) refers to gprs.o(.bss) for gsm_misc_struct
    syspara.o(i.SysVaryInit) refers to protocol.o(.bss) for pro_struct
    syspara.o(i.SysWorkParaInit) refers to selfdef.o(i.MemCpy) for MemCpy
    syspara.o(i.SysWorkParaInit) refers to syspara.o(.bss) for sys_work_para_struct
    syspara.o(i.SysWorkParaRead) refers to fram.o(i.SpiFramRead) for SpiFramRead
    syspara.o(i.SysWorkParaRead) refers to syspara.o(.bss) for sys_work_para_struct
    syspara.o(i.SysWorkParaWrite) refers to fram.o(i.SpiFramWrite) for SpiFramWrite
    syspara.o(i.SysWorkParaWrite) refers to syspara.o(.bss) for sys_work_para_struct
    syspara.o(i.TermReset) refers to syspara.o(i.SysKeyDataSave) for SysKeyDataSave
    syspara.o(i.TermReset) refers to protocol.o(i.ProLsnalSysExit) for ProLsnalSysExit
    syspara.o(i.TermReset) refers to syspara.o(i.SysReset) for SysReset
    syspara.o(i.TermReset) refers to syspara.o(.bss) for sys_work_para_struct
    syspara.o(i.TermReset2) refers to syspara.o(i.SysKeyDataSave) for SysKeyDataSave
    syspara.o(i.TermReset2) refers to protocol.o(i.ProLsnalSysExit) for ProLsnalSysExit
    syspara.o(i.TermReset2) refers to syspara.o(i.SysReset) for SysReset
    syspara.o(i.TermReset2) refers to syspara.o(.bss) for sys_work_para_struct
    syspara.o(i.UnLockRecord) refers to syspara.o(i.LockRecordWrite) for LockRecordWrite
    syspara.o(i.UnLockRecord) refers to syspara.o(.bss) for lock_record_struct
    selfdef.o(i.AsciiToHex) refers to selfdef.o(i.AsciiToHexVal) for AsciiToHexVal
    selfdef.o(i.CrcCheck) refers to rt_memcpy_w.o(.text) for __aeabi_memcpy4
    selfdef.o(i.CrcCheck) refers to selfdef.o(.constdata) for .constdata
    selfdef.o(i.HexToAscii) refers to rt_memcpy_w.o(.text) for __aeabi_memcpy4
    selfdef.o(i.LongTimeDly) refers to driver.o(i.FeedWtd) for FeedWtd
    gps.o(i.GetGpsInfo) refers to selfdef.o(i.MemCpy) for MemCpy
    gps.o(i.GetGpsInfo) refers to driver.o(i.RtcGetCalendarTime) for RtcGetCalendarTime
    gps.o(i.GetGpsInfo) refers to syspara.o(.bss) for sys_data_struct
    gps.o(i.GpsCharFloatDataToHex) refers to selfdef.o(i.IsValidCharFloatNum) for IsValidCharFloatNum
    gps.o(i.GpsFrameCheck) refers to selfdef.o(i.AsciiToHexVal) for AsciiToHexVal
    gps.o(i.GpsGetDate) refers to selfdef.o(i.IsValidNum) for IsValidNum
    gps.o(i.GpsGetGprmcGpggaInfo) refers to _printf_pad.o(.text) for _printf_pre_padding
    gps.o(i.GpsGetGprmcGpggaInfo) refers to _printf_percent.o(.ARM.Collect$$_printf_percent$$00000000) for _printf_percent
    gps.o(i.GpsGetGprmcGpggaInfo) refers to _printf_d.o(.ARM.Collect$$_printf_percent$$00000009) for _printf_d
    gps.o(i.GpsGetGprmcGpggaInfo) refers to _printf_dec.o(.text) for _printf_int_dec
    gps.o(i.GpsGetGprmcGpggaInfo) refers to _printf_c.o(.ARM.Collect$$_printf_percent$$00000013) for _printf_c
    gps.o(i.GpsGetGprmcGpggaInfo) refers to _printf_str.o(.text) for _printf_str
    gps.o(i.GpsGetGprmcGpggaInfo) refers to gps.o(i.GpsGetTime) for GpsGetTime
    gps.o(i.GpsGetGprmcGpggaInfo) refers to gps.o(i.GpsGetDate) for GpsGetDate
    gps.o(i.GpsGetGprmcGpggaInfo) refers to gps.o(i.GpsAdd8Hour) for GpsAdd8Hour
    gps.o(i.GpsGetGprmcGpggaInfo) refers to selfdef.o(i.MemCpy) for MemCpy
    gps.o(i.GpsGetGprmcGpggaInfo) refers to driver.o(i.RtcSetCalendarTime) for RtcSetCalendarTime
    gps.o(i.GpsGetGprmcGpggaInfo) refers to __2sprintf.o(.text) for __2sprintf
    gps.o(i.GpsGetGprmcGpggaInfo) refers to driver.o(i.LocalDebug) for LocalDebug
    gps.o(i.GpsGetGprmcGpggaInfo) refers to stm32f10x_gpio.o(i.GPIO_SetBits) for GPIO_SetBits
    gps.o(i.GpsGetGprmcGpggaInfo) refers to stm32f10x_gpio.o(i.GPIO_ResetBits) for GPIO_ResetBits
    gps.o(i.GpsGetGprmcGpggaInfo) refers to gps.o(i.GpsCharFloatDataToHex) for GpsCharFloatDataToHex
    gps.o(i.GpsGetGprmcGpggaInfo) refers to selfdef.o(i.IsValidNum) for IsValidNum
    gps.o(i.GpsGetGprmcGpggaInfo) refers to syspara.o(.bss) for sys_work_para_struct
    gps.o(i.GpsGetTime) refers to selfdef.o(i.IsValidNum) for IsValidNum
    gps.o(i.GpsMain) refers to driver.o(i.GetGpsUartRxData) for GetGpsUartRxData
    gps.o(i.GpsMain) refers to driver.o(i.LocalDebug) for LocalDebug
    gps.o(i.GpsMain) refers to gps.o(i.GpsFrameCheck) for GpsFrameCheck
    gps.o(i.GpsMain) refers to selfdef.o(i.StrLen) for StrLen
    gps.o(i.GpsMain) refers to selfdef.o(i.SubMatch) for SubMatch
    gps.o(i.GpsMain) refers to selfdef.o(i.MemCpy) for MemCpy
    gps.o(i.GpsMain) refers to gps.o(i.GpsGetGprmcGpggaInfo) for GpsGetGprmcGpggaInfo
    gps.o(i.GpsMain) refers to stm32f10x_gpio.o(i.GPIO_SetBits) for GPIO_SetBits
    gps.o(i.GpsMain) refers to syspara.o(.bss) for sys_misc_run_struct
    gps.o(i.GpsMain) refers to gps.o(.data) for sys_rtc_cur_val
    gps.o(i.GpsMain) refers to gps.o(.bss) for gps_struct
    gprs.o(i.AtAdtFun) refers to gprs.o(.bss) for gsm_misc_struct
    gprs.o(i.AtAthFun) refers to gprs.o(.bss) for gsm_misc_struct
    gprs.o(i.AtCgatt0Fun) refers to gprs.o(.bss) for gsm_misc_struct
    gprs.o(i.AtCgatt1Fun) refers to gprs.o(.bss) for gsm_misc_struct
    gprs.o(i.AtCgattFun) refers to selfdef.o(i.StrLen) for StrLen
    gprs.o(i.AtCgattFun) refers to selfdef.o(i.SubMatch) for SubMatch
    gprs.o(i.AtCgattFun) refers to gprs.o(.bss) for gsm_misc_struct
    gprs.o(i.AtCgdcontFun) refers to gprs.o(.bss) for gsm_misc_struct
    gprs.o(i.AtCimiFun) refers to selfdef.o(i.StrLen) for StrLen
    gprs.o(i.AtCimiFun) refers to selfdef.o(i.SubMatch) for SubMatch
    gprs.o(i.AtCimiFun) refers to selfdef.o(i.IsValidNum) for IsValidNum
    gprs.o(i.AtCimiFun) refers to selfdef.o(i.MemCpy) for MemCpy
    gprs.o(i.AtCimiFun) refers to syspara.o(i.SysPrivateParaWrite) for SysPrivateParaWrite
    gprs.o(i.AtCimiFun) refers to driver.o(i.LocalDebug) for LocalDebug
    gprs.o(i.AtCimiFun) refers to selfdef.o(i.MemCmp) for MemCmp
    gprs.o(i.AtCimiFun) refers to protocol.o(i.ProUpAlarm) for ProUpAlarm
    gprs.o(i.AtCimiFun) refers to syspara.o(i.SysWorkParaWrite) for SysWorkParaWrite
    gprs.o(i.AtCimiFun) refers to gprs.o(.bss) for gsm_misc_struct
    gprs.o(i.AtCimiFun) refers to syspara.o(.bss) for sys_work_para_struct
    gprs.o(i.AtCimiFun) refers to gprs.o(.data) for CRLF_ACK
    gprs.o(i.AtCmdModeFun) refers to gprs.o(.bss) for gsm_misc_struct
    gprs.o(i.AtCmgdFun) refers to gprs.o(.bss) for gsm_misc_struct
    gprs.o(i.AtCmgfFun) refers to gprs.o(.bss) for gsm_misc_struct
    gprs.o(i.AtCmglFun) refers to selfdef.o(i.StrLen) for StrLen
    gprs.o(i.AtCmglFun) refers to selfdef.o(i.SubMatch) for SubMatch
    gprs.o(i.AtCmglFun) refers to sms.o(i.SmsProcessFun) for SmsProcessFun
    gprs.o(i.AtCmglFun) refers to gprs.o(.bss) for gsm_misc_struct
    gprs.o(i.AtCmgsFun) refers to gprs.o(.bss) for gsm_misc_struct
    gprs.o(i.AtCnumFun) refers to selfdef.o(i.StrLen) for StrLen
    gprs.o(i.AtCnumFun) refers to selfdef.o(i.SubMatch) for SubMatch
    gprs.o(i.AtCnumFun) refers to selfdef.o(i.IsValidNum) for IsValidNum
    gprs.o(i.AtCnumFun) refers to sim.o(i.SimNumToTermId) for SimNumToTermId
    gprs.o(i.AtCnumFun) refers to selfdef.o(i.MemCmp) for MemCmp
    gprs.o(i.AtCnumFun) refers to selfdef.o(i.MemCpy) for MemCpy
    gprs.o(i.AtCnumFun) refers to syspara.o(i.SysPrivateParaWrite) for SysPrivateParaWrite
    gprs.o(i.AtCnumFun) refers to gprs.o(.bss) for gsm_misc_struct
    gprs.o(i.AtCnumFun) refers to syspara.o(.bss) for sys_private_para_struct
    gprs.o(i.AtCpbsOnFun) refers to gprs.o(.bss) for gsm_misc_struct
    gprs.o(i.AtCpbwFun) refers to gprs.o(.bss) for gsm_misc_struct
    gprs.o(i.AtCregFun) refers to selfdef.o(i.StrLen) for StrLen
    gprs.o(i.AtCregFun) refers to selfdef.o(i.SubMatch) for SubMatch
    gprs.o(i.AtCregFun) refers to gprs.o(.bss) for gsm_misc_struct
    gprs.o(i.AtCsqFun) refers to selfdef.o(i.StrLen) for StrLen
    gprs.o(i.AtCsqFun) refers to selfdef.o(i.SubMatch) for SubMatch
    gprs.o(i.AtCsqFun) refers to selfdef.o(i.IsValidNum) for IsValidNum
    gprs.o(i.AtCsqFun) refers to gprs.o(.bss) for gsm_misc_struct
    gprs.o(i.AtCsqFun) refers to syspara.o(.bss) for sys_misc_run_struct
    gprs.o(i.AtE0Fun) refers to gprs.o(.bss) for gsm_misc_struct
    gprs.o(i.AtFun) refers to gprs.o(.bss) for gsm_misc_struct
    gprs.o(i.AtGprsDataModeFun) refers to gprs.o(.bss) for gsm_misc_struct
    gprs.o(i.AtImeiFun) refers to selfdef.o(i.StrLen) for StrLen
    gprs.o(i.AtImeiFun) refers to selfdef.o(i.SubMatch) for SubMatch
    gprs.o(i.AtImeiFun) refers to selfdef.o(i.IsValidNum) for IsValidNum
    gprs.o(i.AtImeiFun) refers to selfdef.o(i.MemCpy) for MemCpy
    gprs.o(i.AtImeiFun) refers to gprs.o(.bss) for gsm_misc_struct
    gprs.o(i.AtImeiFun) refers to syspara.o(.bss) for sys_private_para_struct
    gprs.o(i.AtIprFun) refers to gprs.o(.bss) for gsm_misc_struct
    gprs.o(i.AtNullFun) refers to gprs.o(.bss) for gsm_misc_struct
    gprs.o(i.AtSleepFun) refers to gprs.o(.bss) for gsm_misc_struct
    gprs.o(i.AtWakeFun) refers to gprs.o(.bss) for gsm_misc_struct
    gprs.o(i.GprsAtInit) refers to _printf_percent.o(.ARM.Collect$$_printf_percent$$00000000) for _printf_percent
    gprs.o(i.GprsAtInit) refers to _printf_s.o(.ARM.Collect$$_printf_percent$$00000014) for _printf_s
    gprs.o(i.GprsAtInit) refers to _printf_str.o(.text) for _printf_str
    gprs.o(i.GprsAtInit) refers to gprs.o(i.GprsSendAtCmd) for GprsSendAtCmd
    gprs.o(i.GprsAtInit) refers to __2sprintf.o(.text) for __2sprintf
    gprs.o(i.GprsAtInit) refers to gprs.o(.bss) for gsm_misc_struct
    gprs.o(i.GprsAtInit) refers to gprs.o(.data) for OK_ACK
    gprs.o(i.GprsAtInit) refers to syspara.o(.bss) for sys_work_para_struct
    gprs.o(i.GprsAtInit) refers to ppp.o(.bss) for g_ppp_struct
    gprs.o(i.GprsAutoBpr) refers to driver.o(i.UsartInit) for UsartInit
    gprs.o(i.GprsAutoBpr) refers to gprs.o(i.GprsSendAtCmd) for GprsSendAtCmd
    gprs.o(i.GprsAutoBpr) refers to gprs.o(.constdata) for .constdata
    gprs.o(i.GprsAutoBpr) refers to gprs.o(.data) for OK_ACK
    gprs.o(i.GprsAutoBpr) refers to gprs.o(.bss) for gsm_misc_struct
    gprs.o(i.GprsDelay) refers to driver.o(i.FeedWtd) for FeedWtd
    gprs.o(i.GprsDelay) refers to driver.o(i.DriverMain) for DriverMain
    gprs.o(i.GprsDelay) refers to gps.o(i.GpsMain) for GpsMain
    gprs.o(i.GprsDelay) refers to systask.o(i.SysTaskMain) for SysTaskMain
    gprs.o(i.GprsDelay) refers to localcomm.o(i.LocalCommMain) for LocalCommMain
    gprs.o(i.GprsDelay) refers to can.o(i.CanMain) for CanMain
    gprs.o(i.GprsDelay) refers to syspara.o(.bss) for sys_misc_run_struct
    gprs.o(i.GprsDelay) refers to driver.o(.bss) for g_gprs_uart_struct
    gprs.o(i.GprsMain) refers to syspara.o(i.TermReset) for TermReset
    gprs.o(i.GprsMain) refers to selfdef.o(i.StrLen) for StrLen
    gprs.o(i.GprsMain) refers to driver.o(i.LocalDebug) for LocalDebug
    gprs.o(i.GprsMain) refers to gprs.o(i.GprsParaInit) for GprsParaInit
    gprs.o(i.GprsMain) refers to gprs.o(i.GprsPowerInit) for GprsPowerInit
    gprs.o(i.GprsMain) refers to gprs.o(i.GsmVaryInit) for GsmVaryInit
    gprs.o(i.GprsMain) refers to gprs.o(i.GprsAtInit) for GprsAtInit
    gprs.o(i.GprsMain) refers to ppp.o(i.PppInit) for PppInit
    gprs.o(i.GprsMain) refers to gprs.o(i.GsmCsqCheck) for GsmCsqCheck
    gprs.o(i.GprsMain) refers to gprs.o(i.GsmTelSmsProcess) for GsmTelSmsProcess
    gprs.o(i.GprsMain) refers to systask.o(i.TermEnterSleep) for TermEnterSleep
    gprs.o(i.GprsMain) refers to gprs.o(i.GprsDelay) for GprsDelay
    gprs.o(i.GprsMain) refers to gprs.o(i.GprsSendAtCmd) for GprsSendAtCmd
    gprs.o(i.GprsMain) refers to driver.o(i.GprsUartFixedLenSend) for GprsUartFixedLenSend
    gprs.o(i.GprsMain) refers to selfdef.o(i.LongTimeDly) for LongTimeDly
    gprs.o(i.GprsMain) refers to ppp.o(i.PppMainProcess) for PppMainProcess
    gprs.o(i.GprsMain) refers to gprs.o(.bss) for gsm_misc_struct
    gprs.o(i.GprsMain) refers to syspara.o(.bss) for sys_misc_run_struct
    gprs.o(i.GprsMain) refers to gprs.o(.data) for OK_ACK
    gprs.o(i.GprsParaInit) refers to selfdef.o(i.RamZero) for RamZero
    gprs.o(i.GprsParaInit) refers to gprs.o(i.GsmVaryInit) for GsmVaryInit
    gprs.o(i.GprsParaInit) refers to gprs.o(.bss) for gsm_misc_struct
    gprs.o(i.GprsParaInit) refers to syspara.o(.bss) for sys_misc_run_struct
    gprs.o(i.GprsPowerInit) refers to stm32f10x_gpio.o(i.GPIO_SetBits) for GPIO_SetBits
    gprs.o(i.GprsPowerInit) refers to gprs.o(i.GprsDelay) for GprsDelay
    gprs.o(i.GprsPowerInit) refers to stm32f10x_gpio.o(i.GPIO_ResetBits) for GPIO_ResetBits
    gprs.o(i.GprsPowerInit) refers to driver.o(i.GetGprsUartRxData) for GetGprsUartRxData
    gprs.o(i.GprsPowerInit) refers to selfdef.o(i.SubMatch) for SubMatch
    gprs.o(i.GprsPowerInit) refers to gprs.o(i.GprsAutoBpr) for GprsAutoBpr
    gprs.o(i.GprsPowerInit) refers to driver.o(.bss) for g_gprs_uart_struct
    gprs.o(i.GprsPowerInit) refers to gprs.o(.bss) for gsm_misc_struct
    gprs.o(i.GprsSendAtCmd) refers to driver.o(i.GprsUartParaInit) for GprsUartParaInit
    gprs.o(i.GprsSendAtCmd) refers to selfdef.o(i.StrLen) for StrLen
    gprs.o(i.GprsSendAtCmd) refers to driver.o(i.GprsUartFixedLenSend) for GprsUartFixedLenSend
    gprs.o(i.GprsSendAtCmd) refers to driver.o(i.LocalDebug) for LocalDebug
    gprs.o(i.GprsSendAtCmd) refers to gprs.o(i.GprsDelay) for GprsDelay
    gprs.o(i.GprsSendAtCmd) refers to driver.o(i.GetGprsUartRxData) for GetGprsUartRxData
    gprs.o(i.GprsSendAtCmd) refers to selfdef.o(i.SubMatch) for SubMatch
    gprs.o(i.GprsSendAtCmd) refers to gprs.o(.bss) for gsm_misc_struct
    gprs.o(i.GprsSendAtCmd) refers to gprs.o(.data) for at_cmd_struct
    gprs.o(i.GprsSendAtCmd) refers to driver.o(.bss) for g_gprs_uart_struct
    gprs.o(i.GprsSwitchAtMode) refers to gprs.o(i.GprsDelay) for GprsDelay
    gprs.o(i.GprsSwitchAtMode) refers to gprs.o(i.GprsSendAtCmd) for GprsSendAtCmd
    gprs.o(i.GprsSwitchAtMode) refers to selfdef.o(i.StrLen) for StrLen
    gprs.o(i.GprsSwitchAtMode) refers to driver.o(i.LocalDebug) for LocalDebug
    gprs.o(i.GprsSwitchAtMode) refers to gprs.o(.bss) for gsm_misc_struct
    gprs.o(i.GprsSwitchGprsDataMode) refers to gprs.o(i.GprsDelay) for GprsDelay
    gprs.o(i.GprsSwitchGprsDataMode) refers to gprs.o(i.GprsSendAtCmd) for GprsSendAtCmd
    gprs.o(i.GprsSwitchGprsDataMode) refers to selfdef.o(i.StrLen) for StrLen
    gprs.o(i.GprsSwitchGprsDataMode) refers to driver.o(i.LocalDebug) for LocalDebug
    gprs.o(i.GprsSwitchGprsDataMode) refers to gprs.o(.bss) for gsm_misc_struct
    gprs.o(i.GsmCsqCheck) refers to gprs.o(i.GprsSwitchAtMode) for GprsSwitchAtMode
    gprs.o(i.GsmCsqCheck) refers to gprs.o(i.GprsSendAtCmd) for GprsSendAtCmd
    gprs.o(i.GsmCsqCheck) refers to gprs.o(i.GprsSwitchGprsDataMode) for GprsSwitchGprsDataMode
    gprs.o(i.GsmCsqCheck) refers to gprs.o(.bss) for gsm_misc_struct
    gprs.o(i.GsmCsqCheck) refers to gprs.o(.data) for OK_ACK
    gprs.o(i.GsmDisLcpAndIntoSleep) refers to protocol.o(i.ProUpSleep) for ProUpSleep
    gprs.o(i.GsmDisLcpAndIntoSleep) refers to gprs.o(i.GprsDelay) for GprsDelay
    gprs.o(i.GsmDisLcpAndIntoSleep) refers to gprs.o(i.GprsSwitchAtMode) for GprsSwitchAtMode
    gprs.o(i.GsmDisLcpAndIntoSleep) refers to gprs.o(i.GprsSendAtCmd) for GprsSendAtCmd
    gprs.o(i.GsmDisLcpAndIntoSleep) refers to gprs.o(i.GprsPowerInit) for GprsPowerInit
    gprs.o(i.GsmDisLcpAndIntoSleep) refers to gprs.o(.bss) for gsm_misc_struct
    gprs.o(i.GsmDisLcpAndIntoSleep) refers to gprs.o(.data) for OK_ACK
    gprs.o(i.GsmTelSmsProcess) refers to gprs.o(i.GprsSwitchAtMode) for GprsSwitchAtMode
    gprs.o(i.GsmTelSmsProcess) refers to selfdef.o(i.StrLen) for StrLen
    gprs.o(i.GsmTelSmsProcess) refers to driver.o(i.LocalDebug) for LocalDebug
    gprs.o(i.GsmTelSmsProcess) refers to gprs.o(i.GprsSendAtCmd) for GprsSendAtCmd
    gprs.o(i.GsmTelSmsProcess) refers to syspara.o(i.TermReset2) for TermReset2
    gprs.o(i.GsmTelSmsProcess) refers to gprs.o(i.GprsSwitchGprsDataMode) for GprsSwitchGprsDataMode
    gprs.o(i.GsmTelSmsProcess) refers to gprs.o(.bss) for gsm_misc_struct
    gprs.o(i.GsmTelSmsProcess) refers to gprs.o(.data) for OK_ACK
    gprs.o(i.GsmVaryInit) refers to selfdef.o(i.RamZero) for RamZero
    gprs.o(i.GsmVaryInit) refers to protocol.o(i.ProParaInit) for ProParaInit
    gprs.o(i.GsmVaryInit) refers to ppp.o(.bss) for g_ppp_struct
    gprs.o(i.GsmVaryInit) refers to gprs.o(.bss) for gsm_misc_struct
    gprs.o(.data) refers to gprs.o(i.AtFun) for AtFun
    gprs.o(.data) refers to gprs.o(i.AtE0Fun) for AtE0Fun
    gprs.o(.data) refers to gprs.o(i.AtIprFun) for AtIprFun
    gprs.o(.data) refers to gprs.o(i.AtCimiFun) for AtCimiFun
    gprs.o(.data) refers to gprs.o(i.AtCpbsOnFun) for AtCpbsOnFun
    gprs.o(.data) refers to gprs.o(i.AtCpbwFun) for AtCpbwFun
    gprs.o(.data) refers to gprs.o(i.AtImeiFun) for AtImeiFun
    gprs.o(.data) refers to gprs.o(i.AtCsqFun) for AtCsqFun
    gprs.o(.data) refers to gprs.o(i.AtCregFun) for AtCregFun
    gprs.o(.data) refers to gprs.o(i.AtCnumFun) for AtCnumFun
    gprs.o(.data) refers to gprs.o(i.AtCgattFun) for AtCgattFun
    gprs.o(.data) refers to gprs.o(i.AtCgatt1Fun) for AtCgatt1Fun
    gprs.o(.data) refers to gprs.o(i.AtCgatt0Fun) for AtCgatt0Fun
    gprs.o(.data) refers to gprs.o(i.AtCgdcontFun) for AtCgdcontFun
    gprs.o(.data) refers to gprs.o(i.AtAdtFun) for AtAdtFun
    gprs.o(.data) refers to gprs.o(i.AtCmdModeFun) for AtCmdModeFun
    gprs.o(.data) refers to gprs.o(i.AtGprsDataModeFun) for AtGprsDataModeFun
    gprs.o(.data) refers to gprs.o(i.AtCmgfFun) for AtCmgfFun
    gprs.o(.data) refers to gprs.o(i.AtCmglFun) for AtCmglFun
    gprs.o(.data) refers to gprs.o(i.AtCmgsFun) for AtCmgsFun
    gprs.o(.data) refers to gprs.o(i.AtCmgdFun) for AtCmgdFun
    gprs.o(.data) refers to gprs.o(i.AtAthFun) for AtAthFun
    gprs.o(.data) refers to gprs.o(i.AtSleepFun) for AtSleepFun
    gprs.o(.data) refers to gprs.o(i.AtWakeFun) for AtWakeFun
    gprs.o(.data) refers to gprs.o(i.AtNullFun) for AtNullFun
    sim.o(i.SimSetSimNum) refers to gprs.o(i.GprsSwitchAtMode) for GprsSwitchAtMode
    sim.o(i.SimSetSimNum) refers to selfdef.o(i.MemCpy) for MemCpy
    sim.o(i.SimSetSimNum) refers to gprs.o(i.GprsSendAtCmd) for GprsSendAtCmd
    sim.o(i.SimSetSimNum) refers to gprs.o(i.GprsSwitchGprsDataMode) for GprsSwitchGprsDataMode
    sim.o(i.SimSetSimNum) refers to gprs.o(.bss) for gsm_misc_struct
    sim.o(i.SimTermId23ToAsciiNum) refers to _printf_percent.o(.ARM.Collect$$_printf_percent$$00000000) for _printf_percent
    sim.o(i.SimTermId23ToAsciiNum) refers to _printf_u.o(.ARM.Collect$$_printf_percent$$0000000A) for _printf_u
    sim.o(i.SimTermId23ToAsciiNum) refers to _printf_dec.o(.text) for _printf_int_dec
    sim.o(i.SimTermId23ToAsciiNum) refers to __2sprintf.o(.text) for __2sprintf
    sim.o(i.SimTermId23ToAsciiNum) refers to selfdef.o(i.MemCpy) for MemCpy
    sim.o(i.SimTermIdToAsciiNum) refers to _printf_percent.o(.ARM.Collect$$_printf_percent$$00000000) for _printf_percent
    sim.o(i.SimTermIdToAsciiNum) refers to _printf_llu.o(.ARM.Collect$$_printf_percent$$0000000F) for _printf_llu
    sim.o(i.SimTermIdToAsciiNum) refers to _printf_longlong_dec.o(.text) for _printf_longlong_dec
    sim.o(i.SimTermIdToAsciiNum) refers to __2sprintf.o(.text) for __2sprintf
    sim.o(i.SimTermIdToAsciiNum) refers to selfdef.o(i.MemCpy) for MemCpy
    ppp.o(i.IpTx) refers to ppp.o(i.IpHeadCheck) for IpHeadCheck
    ppp.o(i.IpTx) refers to selfdef.o(i.MemCpy) for MemCpy
    ppp.o(i.IpTx) refers to ppp.o(i.PppTx) for PppTx
    ppp.o(i.IpTx) refers to ppp.o(.data) for tx_counter
    ppp.o(i.IpTx) refers to ppp.o(.bss) for g_ppp_struct
    ppp.o(i.PppInit) refers to selfdef.o(i.StrLen) for StrLen
    ppp.o(i.PppInit) refers to driver.o(i.LocalDebug) for LocalDebug
    ppp.o(i.PppInit) refers to ppp.o(i.PppLcpReq) for PppLcpReq
    ppp.o(i.PppInit) refers to ppp.o(i.PppPapReq) for PppPapReq
    ppp.o(i.PppInit) refers to gprs.o(i.GprsDelay) for GprsDelay
    ppp.o(i.PppInit) refers to ppp.o(i.PppNcpReq) for PppNcpReq
    ppp.o(i.PppInit) refers to ppp.o(.bss) for g_ppp_struct
    ppp.o(i.PppInit) refers to gprs.o(.bss) for gsm_misc_struct
    ppp.o(i.PppLcpAck) refers to ppp.o(i.PppTx) for PppTx
    ppp.o(i.PppLcpNak) refers to ppp.o(i.PppTx) for PppTx
    ppp.o(i.PppLcpProcess) refers to ppp.o(i.PppLcpNak) for PppLcpNak
    ppp.o(i.PppLcpProcess) refers to selfdef.o(i.MemCpy) for MemCpy
    ppp.o(i.PppLcpProcess) refers to ppp.o(i.PppLcpAck) for PppLcpAck
    ppp.o(i.PppLcpProcess) refers to gprs.o(i.GprsDelay) for GprsDelay
    ppp.o(i.PppLcpProcess) refers to ppp.o(i.PppLcpReq) for PppLcpReq
    ppp.o(i.PppLcpProcess) refers to ppp.o(i.PppLcpTerminateAck) for PppLcpTerminateAck
    ppp.o(i.PppLcpProcess) refers to ppp.o(.bss) for g_ppp_struct
    ppp.o(i.PppLcpProcess) refers to gprs.o(.bss) for gsm_misc_struct
    ppp.o(i.PppLcpReq) refers to ppp.o(i.PppTx) for PppTx
    ppp.o(i.PppLcpTerminate) refers to ppp.o(i.PppTx) for PppTx
    ppp.o(i.PppLcpTerminateAck) refers to ppp.o(i.PppTx) for PppTx
    ppp.o(i.PppMainProcess) refers to driver.o(i.GetGprsUartRxData) for GetGprsUartRxData
    ppp.o(i.PppMainProcess) refers to driver.o(i.GprsUartParaInit) for GprsUartParaInit
    ppp.o(i.PppMainProcess) refers to selfdef.o(i.StrLen) for StrLen
    ppp.o(i.PppMainProcess) refers to selfdef.o(i.SubMatch) for SubMatch
    ppp.o(i.PppMainProcess) refers to ppp.o(i.PppPacketDecode) for PppPacketDecode
    ppp.o(i.PppMainProcess) refers to selfdef.o(i.CrcCheck) for CrcCheck
    ppp.o(i.PppMainProcess) refers to ppp.o(i.PppLcpProcess) for PppLcpProcess
    ppp.o(i.PppMainProcess) refers to ppp.o(i.PppPapProcess) for PppPapProcess
    ppp.o(i.PppMainProcess) refers to ppp.o(i.PppNcpProcess) for PppNcpProcess
    ppp.o(i.PppMainProcess) refers to selfdef.o(i.MemCmp) for MemCmp
    ppp.o(i.PppMainProcess) refers to ppp.o(i.UdpProcess) for UdpProcess
    ppp.o(i.PppMainProcess) refers to ppp.o(i.TcpProcess) for TcpProcess
    ppp.o(i.PppMainProcess) refers to ftp.o(i.FtpProcess) for FtpProcess
    ppp.o(i.PppMainProcess) refers to driver.o(.bss) for g_gprs_uart_struct
    ppp.o(i.PppMainProcess) refers to gprs.o(.bss) for gsm_misc_struct
    ppp.o(i.PppMainProcess) refers to ftp.o(.bss) for ftp_struct
    ppp.o(i.PppMainProcess) refers to ppp.o(.bss) for udp_struct
    ppp.o(i.PppNcpAck) refers to ppp.o(i.PppTx) for PppTx
    ppp.o(i.PppNcpNak) refers to selfdef.o(i.MemCpy) for MemCpy
    ppp.o(i.PppNcpNak) refers to ppp.o(i.PppTx) for PppTx
    ppp.o(i.PppNcpNak) refers to ppp.o(.bss) for udp_struct
    ppp.o(i.PppNcpProcess) refers to ppp.o(i.PppNcpAck) for PppNcpAck
    ppp.o(i.PppNcpProcess) refers to selfdef.o(i.MemCpy) for MemCpy
    ppp.o(i.PppNcpProcess) refers to ppp.o(i.PppNcpReq) for PppNcpReq
    ppp.o(i.PppNcpProcess) refers to selfdef.o(i.StrLen) for StrLen
    ppp.o(i.PppNcpProcess) refers to driver.o(i.LocalDebug) for LocalDebug
    ppp.o(i.PppNcpProcess) refers to ppp.o(i.UdpIpPortInit) for UdpIpPortInit
    ppp.o(i.PppNcpProcess) refers to protocol.o(i.ProUpAquireCommPara) for ProUpAquireCommPara
    ppp.o(i.PppNcpProcess) refers to ppp.o(i.PppNcpNak) for PppNcpNak
    ppp.o(i.PppNcpProcess) refers to ppp.o(.bss) for g_ppp_struct
    ppp.o(i.PppNcpProcess) refers to gprs.o(.bss) for gsm_misc_struct
    ppp.o(i.PppNcpProcess) refers to syspara.o(.bss) for sys_private_para_struct
    ppp.o(i.PppNcpProcess) refers to protocol.o(.bss) for pro_struct
    ppp.o(i.PppNcpReq) refers to ppp.o(i.PppTx) for PppTx
    ppp.o(i.PppPacketDecode) refers to _printf_percent.o(.ARM.Collect$$_printf_percent$$00000000) for _printf_percent
    ppp.o(i.PppPacketDecode) refers to _printf_s.o(.ARM.Collect$$_printf_percent$$00000014) for _printf_s
    ppp.o(i.PppPacketDecode) refers to _printf_str.o(.text) for _printf_str
    ppp.o(i.PppPacketDecode) refers to _printf_pad.o(.text) for _printf_pre_padding
    ppp.o(i.PppPacketDecode) refers to _printf_x.o(.ARM.Collect$$_printf_percent$$0000000C) for _printf_x
    ppp.o(i.PppPacketDecode) refers to _printf_hex_int.o(.text) for _printf_longlong_hex
    ppp.o(i.PppPacketDecode) refers to __2sprintf.o(.text) for __2sprintf
    ppp.o(i.PppPacketDecode) refers to driver.o(i.LocalDebug) for LocalDebug
    ppp.o(i.PppPacketEncode) refers to _printf_percent.o(.ARM.Collect$$_printf_percent$$00000000) for _printf_percent
    ppp.o(i.PppPacketEncode) refers to _printf_s.o(.ARM.Collect$$_printf_percent$$00000014) for _printf_s
    ppp.o(i.PppPacketEncode) refers to _printf_str.o(.text) for _printf_str
    ppp.o(i.PppPacketEncode) refers to _printf_pad.o(.text) for _printf_pre_padding
    ppp.o(i.PppPacketEncode) refers to _printf_x.o(.ARM.Collect$$_printf_percent$$0000000C) for _printf_x
    ppp.o(i.PppPacketEncode) refers to _printf_hex_int.o(.text) for _printf_longlong_hex
    ppp.o(i.PppPacketEncode) refers to __2sprintf.o(.text) for __2sprintf
    ppp.o(i.PppPacketEncode) refers to driver.o(i.LocalDebug) for LocalDebug
    ppp.o(i.PppPacketEncode) refers to driver.o(i.GprsUartFixedLenSend) for GprsUartFixedLenSend
    ppp.o(i.PppPapProcess) refers to ppp.o(.bss) for g_ppp_struct
    ppp.o(i.PppPapReq) refers to selfdef.o(i.StrLen) for StrLen
    ppp.o(i.PppPapReq) refers to selfdef.o(i.MemCpy) for MemCpy
    ppp.o(i.PppPapReq) refers to ppp.o(i.PppTx) for PppTx
    ppp.o(i.PppPapReq) refers to syspara.o(.bss) for sys_private_para_struct
    ppp.o(i.PppTx) refers to rt_memcpy_v6.o(.text) for __aeabi_memcpy
    ppp.o(i.PppTx) refers to selfdef.o(i.CrcCheck) for CrcCheck
    ppp.o(i.PppTx) refers to ppp.o(i.PppPacketEncode) for PppPacketEncode
    ppp.o(i.TcpUdpHeadCheck) refers to ppp.o(.bss) for g_ppp_struct
    ppp.o(i.UdpIpPortInit) refers to selfdef.o(i.MemCpy) for MemCpy
    ppp.o(i.UdpIpPortInit) refers to ppp.o(.bss) for udp_struct
    ppp.o(i.UdpProcess) refers to protocol.o(i.ProProcess) for ProProcess
    ppp.o(i.UdpTx) refers to rt_memcpy_v6.o(.text) for __aeabi_memcpy
    ppp.o(i.UdpTx) refers to ppp.o(i.TcpUdpHeadCheck) for TcpUdpHeadCheck
    ppp.o(i.UdpTx) refers to ppp.o(i.IpTx) for IpTx
    ppp.o(i.UdpTx) refers to ppp.o(.bss) for g_ppp_struct
    protocol.o(i.ProConstructFrameHead) refers to syspara.o(.bss) for sys_private_para_struct
    protocol.o(i.ProConstructFrameHead) refers to protocol.o(.bss) for pro_struct
    protocol.o(i.ProConstructFrameTail) refers to selfdef.o(i.XorCheck) for XorCheck
    protocol.o(i.ProDownAck) refers to protocol.o(i.ProUpWorkPara) for ProUpWorkPara
    protocol.o(i.ProDownAck) refers to protocol.o(i.ProLsnalHeadTailSave) for ProLsnalHeadTailSave
    protocol.o(i.ProDownAck) refers to fram.o(i.SpiFramWrite) for SpiFramWrite
    protocol.o(i.ProDownAck) refers to protocol.o(.bss) for pro_struct
    protocol.o(i.ProDownAck) refers to syspara.o(.bss) for sys_misc_run_struct
    protocol.o(i.ProDownCommParaAck) refers to selfdef.o(i.MemCpy) for MemCpy
    protocol.o(i.ProDownCommParaAck) refers to protocol.o(i.ProUpAck) for ProUpAck
    protocol.o(i.ProDownCommParaAck) refers to protocol.o(.bss) for pro_struct
    protocol.o(i.ProDownCommParaAck) refers to gprs.o(.bss) for gsm_misc_struct
    protocol.o(i.ProDownParaQuery) refers to syspara.o(i.QuerySysPrivatePara) for QuerySysPrivatePara
    protocol.o(i.ProDownParaQuery) refers to protocol.o(i.ProPacket) for ProPacket
    protocol.o(i.ProDownSetControlPara) refers to selfdef.o(i.MemCpy) for MemCpy
    protocol.o(i.ProDownSetControlPara) refers to fram.o(i.SpiFramWrite) for SpiFramWrite
    protocol.o(i.ProDownSetControlPara) refers to can.o(i.CanDataWrite) for CanDataWrite
    protocol.o(i.ProDownSetControlPara) refers to protocol.o(i.ProUpAck) for ProUpAck
    protocol.o(i.ProDownSetControlPara) refers to can.o(.bss) for can_lock_struct
    protocol.o(i.ProDownSetControlPara) refers to syspara.o(.bss) for sys_work_para_struct
    protocol.o(i.ProDownSetPara) refers to syspara.o(i.SetSysPrivatePara) for SetSysPrivatePara
    protocol.o(i.ProDownSetPara) refers to protocol.o(i.ProUpAck) for ProUpAck
    protocol.o(i.ProDownSetPara) refers to syspara.o(i.SysBootParaWrite) for SysBootParaWrite
    protocol.o(i.ProDownSetPara) refers to syspara.o(i.SysReset) for SysReset
    protocol.o(i.ProDownSetPara) refers to syspara.o(.bss) for sys_boot_para_struct
    protocol.o(i.ProDownSetWorkPara) refers to syspara.o(i.SetWorkPara) for SetWorkPara
    protocol.o(i.ProDownSetWorkPara) refers to protocol.o(i.ProUpAck) for ProUpAck
    protocol.o(i.ProDownTrack) refers to syspara.o(i.SysWorkParaWrite) for SysWorkParaWrite
    protocol.o(i.ProDownTrack) refers to protocol.o(i.ProUpAck) for ProUpAck
    protocol.o(i.ProDownTrack) refers to syspara.o(.bss) for sys_work_para_struct
    protocol.o(i.ProDownUpgrade) refers to ftp.o(i.FtpAddrAnalysis) for FtpAddrAnalysis
    protocol.o(i.ProDownUpgrade) refers to protocol.o(i.ProUpAck) for ProUpAck
    protocol.o(i.ProDownUpgrade) refers to ftp.o(i.FtpMain) for FtpMain
    protocol.o(i.ProDownUpgrade) refers to ppp.o(i.UdpIpPortInit) for UdpIpPortInit
    protocol.o(i.ProDownUpgrade) refers to protocol.o(i.ProUpUpgradeResult) for ProUpUpgradeResult
    protocol.o(i.ProDownUpgrade) refers to selfdef.o(i.StrLen) for StrLen
    protocol.o(i.ProDownUpgrade) refers to driver.o(i.LocalDebug) for LocalDebug
    protocol.o(i.ProDownUpgrade) refers to localcomm.o(i.LocalCommFtpState) for LocalCommFtpState
    protocol.o(i.ProDownUpgrade) refers to syspara.o(i.SysReset) for SysReset
    protocol.o(i.ProDownUpgrade) refers to ftp.o(.bss) for ftp_struct
    protocol.o(i.ProGetFromAccOnBuf) refers to selfdef.o(i.MemCpy) for MemCpy
    protocol.o(i.ProGetFromAccOnBuf) refers to protocol.o(i.ProPacket) for ProPacket
    protocol.o(i.ProGetFromAccOnBuf) refers to protocol.o(.bss) for pro_struct
    protocol.o(i.ProLsnalDataInit) refers to syspara.o(.bss) for sys_data_struct
    protocol.o(i.ProLsnalDataSave) refers to protocol.o(i.ProLsnalDataInit) for ProLsnalDataInit
    protocol.o(i.ProLsnalDataSave) refers to selfdef.o(i.U8SumCheck) for U8SumCheck
    protocol.o(i.ProLsnalDataSave) refers to protocol.o(i.ProLsnalPageSave) for ProLsnalPageSave
    protocol.o(i.ProLsnalDataSave) refers to selfdef.o(i.MemCpy) for MemCpy
    protocol.o(i.ProLsnalDataSave) refers to fram.o(i.SpiFramWrite) for SpiFramWrite
    protocol.o(i.ProLsnalDataSave) refers to syspara.o(.bss) for sys_data_struct
    protocol.o(i.ProLsnalHeadTailSave) refers to fram.o(i.SpiFramWrite) for SpiFramWrite
    protocol.o(i.ProLsnalHeadTailSave) refers to syspara.o(.bss) for sys_work_para_struct
    protocol.o(i.ProLsnalPageSave) refers to protocol.o(i.ProLsnalHeadTailSave) for ProLsnalHeadTailSave
    protocol.o(i.ProLsnalPageSave) refers to flash.o(i.FlashErase) for FlashErase
    protocol.o(i.ProLsnalPageSave) refers to flash.o(i.FlashWrite) for FlashWrite
    protocol.o(i.ProLsnalPageSave) refers to syspara.o(.bss) for sys_work_para_struct
    protocol.o(i.ProLsnalSysExit) refers to protocol.o(i.ProPutIntoLsnal) for ProPutIntoLsnal
    protocol.o(i.ProLsnalSysExit) refers to protocol.o(.bss) for pro_struct
    protocol.o(i.ProPacket) refers to _printf_percent.o(.ARM.Collect$$_printf_percent$$00000000) for _printf_percent
    protocol.o(i.ProPacket) refers to _printf_s.o(.ARM.Collect$$_printf_percent$$00000014) for _printf_s
    protocol.o(i.ProPacket) refers to _printf_str.o(.text) for _printf_str
    protocol.o(i.ProPacket) refers to _printf_pad.o(.text) for _printf_pre_padding
    protocol.o(i.ProPacket) refers to _printf_x.o(.ARM.Collect$$_printf_percent$$0000000C) for _printf_x
    protocol.o(i.ProPacket) refers to _printf_hex_int.o(.text) for _printf_longlong_hex
    protocol.o(i.ProPacket) refers to protocol.o(i.ProConstructFrameHead) for ProConstructFrameHead
    protocol.o(i.ProPacket) refers to selfdef.o(i.MemCpy) for MemCpy
    protocol.o(i.ProPacket) refers to protocol.o(i.ProConstructFrameTail) for ProConstructFrameTail
    protocol.o(i.ProPacket) refers to __2sprintf.o(.text) for __2sprintf
    protocol.o(i.ProPacket) refers to driver.o(i.LocalDebug) for LocalDebug
    protocol.o(i.ProPacket) refers to ppp.o(i.UdpTx) for UdpTx
    protocol.o(i.ProPacket) refers to protocol.o(i.ProPutIntoAccOnBuf) for ProPutIntoAccOnBuf
    protocol.o(i.ProPacket) refers to protocol.o(i.ProPutIntoLsnal) for ProPutIntoLsnal
    protocol.o(i.ProPacket) refers to protocol.o(.bss) for pro_struct
    protocol.o(i.ProPacket) refers to gprs.o(.bss) for gsm_misc_struct
    protocol.o(i.ProPacket) refers to syspara.o(.bss) for sys_misc_run_struct
    protocol.o(i.ProParaInit) refers to protocol.o(i.ProPutIntoLsnal) for ProPutIntoLsnal
    protocol.o(i.ProParaInit) refers to ftp.o(.bss) for ftp_struct
    protocol.o(i.ProParaInit) refers to protocol.o(.bss) for pro_struct
    protocol.o(i.ProParaInit) refers to syspara.o(.bss) for sys_misc_run_struct
    protocol.o(i.ProPeriodTx) refers to _printf_percent.o(.ARM.Collect$$_printf_percent$$00000000) for _printf_percent
    protocol.o(i.ProPeriodTx) refers to _printf_s.o(.ARM.Collect$$_printf_percent$$00000014) for _printf_s
    protocol.o(i.ProPeriodTx) refers to _printf_str.o(.text) for _printf_str
    protocol.o(i.ProPeriodTx) refers to _printf_pad.o(.text) for _printf_pre_padding
    protocol.o(i.ProPeriodTx) refers to _printf_x.o(.ARM.Collect$$_printf_percent$$0000000C) for _printf_x
    protocol.o(i.ProPeriodTx) refers to _printf_hex_int.o(.text) for _printf_longlong_hex
    protocol.o(i.ProPeriodTx) refers to __2sprintf.o(.text) for __2sprintf
    protocol.o(i.ProPeriodTx) refers to driver.o(i.LocalDebug) for LocalDebug
    protocol.o(i.ProPeriodTx) refers to ppp.o(i.UdpTx) for UdpTx
    protocol.o(i.ProPeriodTx) refers to protocol.o(i.ProPutIntoLsnal) for ProPutIntoLsnal
    protocol.o(i.ProPeriodTx) refers to protocol.o(i.ProUpLsnalData) for ProUpLsnalData
    protocol.o(i.ProPeriodTx) refers to selfdef.o(i.MemCpy) for MemCpy
    protocol.o(i.ProPeriodTx) refers to ppp.o(i.UdpIpPortInit) for UdpIpPortInit
    protocol.o(i.ProPeriodTx) refers to protocol.o(i.ProUpLogin) for ProUpLogin
    protocol.o(i.ProPeriodTx) refers to protocol.o(i.ProGetFromAccOnBuf) for ProGetFromAccOnBuf
    protocol.o(i.ProPeriodTx) refers to protocol.o(.bss) for pro_struct
    protocol.o(i.ProPeriodTx) refers to gprs.o(.bss) for gsm_misc_struct
    protocol.o(i.ProPeriodTx) refers to syspara.o(.bss) for sys_misc_run_struct
    protocol.o(i.ProPeriodTx) refers to ppp.o(.bss) for udp_struct
    protocol.o(i.ProPeriodTx) refers to protocol.o(.data) for last_sec
    protocol.o(i.ProProcess) refers to _printf_percent.o(.ARM.Collect$$_printf_percent$$00000000) for _printf_percent
    protocol.o(i.ProProcess) refers to _printf_s.o(.ARM.Collect$$_printf_percent$$00000014) for _printf_s
    protocol.o(i.ProProcess) refers to _printf_str.o(.text) for _printf_str
    protocol.o(i.ProProcess) refers to _printf_pad.o(.text) for _printf_pre_padding
    protocol.o(i.ProProcess) refers to _printf_x.o(.ARM.Collect$$_printf_percent$$0000000C) for _printf_x
    protocol.o(i.ProProcess) refers to _printf_hex_int.o(.text) for _printf_longlong_hex
    protocol.o(i.ProProcess) refers to __2sprintf.o(.text) for __2sprintf
    protocol.o(i.ProProcess) refers to driver.o(i.LocalDebug) for LocalDebug
    protocol.o(i.ProProcess) refers to selfdef.o(i.XorCheck) for XorCheck
    protocol.o(i.ProProcess) refers to selfdef.o(i.MemCmp) for MemCmp
    protocol.o(i.ProProcess) refers to protocol.o(i.ProDownCommParaAck) for ProDownCommParaAck
    protocol.o(i.ProProcess) refers to protocol.o(i.ProDownAck) for ProDownAck
    protocol.o(i.ProProcess) refers to protocol.o(i.ProUpPosition) for ProUpPosition
    protocol.o(i.ProProcess) refers to protocol.o(i.ProUpWorkPara) for ProUpWorkPara
    protocol.o(i.ProProcess) refers to protocol.o(i.ProDownSetPara) for ProDownSetPara
    protocol.o(i.ProProcess) refers to protocol.o(i.ProDownParaQuery) for ProDownParaQuery
    protocol.o(i.ProProcess) refers to protocol.o(i.ProDownUpgrade) for ProDownUpgrade
    protocol.o(i.ProProcess) refers to protocol.o(i.ProDownSetWorkPara) for ProDownSetWorkPara
    protocol.o(i.ProProcess) refers to protocol.o(i.ProDownSetControlPara) for ProDownSetControlPara
    protocol.o(i.ProProcess) refers to syspara.o(.bss) for sys_private_para_struct
    protocol.o(i.ProProcess) refers to protocol.o(.bss) for pro_struct
    protocol.o(i.ProPutIntoAccOnBuf) refers to selfdef.o(i.MemCpy) for MemCpy
    protocol.o(i.ProPutIntoAccOnBuf) refers to protocol.o(.bss) for pro_struct
    protocol.o(i.ProPutIntoLsnal) refers to protocol.o(i.ProLsnalDataSave) for ProLsnalDataSave
    protocol.o(i.ProPutIntoLsnal) refers to selfdef.o(i.MemCpy) for MemCpy
    protocol.o(i.ProPutIntoLsnal) refers to ppp.o(i.UdpIpPortInit) for UdpIpPortInit
    protocol.o(i.ProPutIntoLsnal) refers to protocol.o(i.ProUpAquireCommPara) for ProUpAquireCommPara
    protocol.o(i.ProPutIntoLsnal) refers to protocol.o(.bss) for pro_struct
    protocol.o(i.ProPutIntoLsnal) refers to syspara.o(.bss) for sys_private_para_struct
    protocol.o(i.ProPutIntoLsnal) refers to ppp.o(.bss) for udp_struct
    protocol.o(i.ProPutIntoLsnal) refers to gprs.o(.bss) for gsm_misc_struct
    protocol.o(i.ProUpAccOnOff) refers to gps.o(i.GetGpsInfo) for GetGpsInfo
    protocol.o(i.ProUpAccOnOff) refers to protocol.o(i.ProPacket) for ProPacket
    protocol.o(i.ProUpAck) refers to protocol.o(i.ProPacket) for ProPacket
    protocol.o(i.ProUpAlarm) refers to gps.o(i.GetGpsInfo) for GetGpsInfo
    protocol.o(i.ProUpAlarm) refers to protocol.o(i.ProPacket) for ProPacket
    protocol.o(i.ProUpAquireCommPara) refers to gps.o(i.GetGpsInfo) for GetGpsInfo
    protocol.o(i.ProUpAquireCommPara) refers to protocol.o(i.ProPacket) for ProPacket
    protocol.o(i.ProUpControllerAck) refers to gps.o(i.GetGpsInfo) for GetGpsInfo
    protocol.o(i.ProUpControllerAck) refers to selfdef.o(i.MemCpy) for MemCpy
    protocol.o(i.ProUpControllerAck) refers to protocol.o(i.ProPacket) for ProPacket
    protocol.o(i.ProUpHeartBeat) refers to protocol.o(i.ProPacket) for ProPacket
    protocol.o(i.ProUpLatLongPosition) refers to protocol.o(i.ProPacket) for ProPacket
    protocol.o(i.ProUpLogin) refers to gps.o(i.GetGpsInfo) for GetGpsInfo
    protocol.o(i.ProUpLogin) refers to protocol.o(i.ProPacket) for ProPacket
    protocol.o(i.ProUpLsnalData) refers to protocol.o(i.ProLsnalHeadTailSave) for ProLsnalHeadTailSave
    protocol.o(i.ProUpLsnalData) refers to flash.o(i.FlashRead) for FlashRead
    protocol.o(i.ProUpLsnalData) refers to selfdef.o(i.U8SumCheck) for U8SumCheck
    protocol.o(i.ProUpLsnalData) refers to selfdef.o(i.MemCpy) for MemCpy
    protocol.o(i.ProUpLsnalData) refers to gps.o(i.GetGpsInfo) for GetGpsInfo
    protocol.o(i.ProUpLsnalData) refers to protocol.o(i.ProPacket) for ProPacket
    protocol.o(i.ProUpLsnalData) refers to protocol.o(.bss) for pro_struct
    protocol.o(i.ProUpLsnalData) refers to syspara.o(.bss) for sys_work_para_struct
    protocol.o(i.ProUpPosition) refers to gps.o(i.GetGpsInfo) for GetGpsInfo
    protocol.o(i.ProUpPosition) refers to protocol.o(i.ProPacket) for ProPacket
    protocol.o(i.ProUpSleep) refers to gps.o(i.GetGpsInfo) for GetGpsInfo
    protocol.o(i.ProUpSleep) refers to protocol.o(i.ProPacket) for ProPacket
    protocol.o(i.ProUpUpgradeResult) refers to protocol.o(i.ProPacket) for ProPacket
    protocol.o(i.ProUpWorkPara) refers to gps.o(i.GetGpsInfo) for GetGpsInfo
    protocol.o(i.ProUpWorkPara) refers to selfdef.o(i.MemCpy) for MemCpy
    protocol.o(i.ProUpWorkPara) refers to selfdef.o(i.RamZero) for RamZero
    protocol.o(i.ProUpWorkPara) refers to protocol.o(i.ProPacket) for ProPacket
    protocol.o(i.ProUpWorkPara) refers to syspara.o(.bss) for sys_work_para_struct
    protocol.o(i.ProUpWorkPara) refers to can.o(.bss) for can_struct
    protocol.o(i.ProUpWorkTimeStatistic) refers to protocol.o(i.ProPacket) for ProPacket
    flash.o(i.FlashErase) refers to stm32f10x_flash.o(i.FLASH_Unlock) for FLASH_Unlock
    flash.o(i.FlashErase) refers to stm32f10x_flash.o(i.FLASH_ErasePage) for FLASH_ErasePage
    flash.o(i.FlashErase) refers to stm32f10x_flash.o(i.FLASH_Lock) for FLASH_Lock
    flash.o(i.FlashWrite) refers to stm32f10x_flash.o(i.FLASH_Unlock) for FLASH_Unlock
    flash.o(i.FlashWrite) refers to stm32f10x_flash.o(i.FLASH_ProgramWord) for FLASH_ProgramWord
    flash.o(i.FlashWrite) refers to stm32f10x_flash.o(i.FLASH_Lock) for FLASH_Lock
    fram.o(i.SpiFramInit) refers to stm32f10x_rcc.o(i.RCC_APB2PeriphClockCmd) for RCC_APB2PeriphClockCmd
    fram.o(i.SpiFramInit) refers to stm32f10x_gpio.o(i.GPIO_Init) for GPIO_Init
    fram.o(i.SpiFramInit) refers to stm32f10x_gpio.o(i.GPIO_SetBits) for GPIO_SetBits
    fram.o(i.SpiFramInit) refers to stm32f10x_spi.o(i.SPI_Init) for SPI_Init
    fram.o(i.SpiFramInit) refers to stm32f10x_spi.o(i.SPI_Cmd) for SPI_Cmd
    fram.o(i.SpiFramPageWrite) refers to fram.o(i.SpiFramWrWren) for SpiFramWrWren
    fram.o(i.SpiFramPageWrite) refers to fram.o(i.SpiFramWaitFree) for SpiFramWaitFree
    fram.o(i.SpiFramPageWrite) refers to stm32f10x_gpio.o(i.GPIO_ResetBits) for GPIO_ResetBits
    fram.o(i.SpiFramPageWrite) refers to fram.o(i.SpiFramWrByte) for SpiFramWrByte
    fram.o(i.SpiFramPageWrite) refers to stm32f10x_gpio.o(i.GPIO_SetBits) for GPIO_SetBits
    fram.o(i.SpiFramPageWrite) refers to fram.o(i.SpiFramRead) for SpiFramRead
    fram.o(i.SpiFramRdByte) refers to stm32f10x_spi.o(i.SPI_I2S_GetFlagStatus) for SPI_I2S_GetFlagStatus
    fram.o(i.SpiFramRdByte) refers to stm32f10x_spi.o(i.SPI_I2S_SendData) for SPI_I2S_SendData
    fram.o(i.SpiFramRdByte) refers to stm32f10x_spi.o(i.SPI_I2S_ReceiveData) for SPI_I2S_ReceiveData
    fram.o(i.SpiFramRdRdsr) refers to stm32f10x_gpio.o(i.GPIO_ResetBits) for GPIO_ResetBits
    fram.o(i.SpiFramRdRdsr) refers to fram.o(i.SpiFramWrByte) for SpiFramWrByte
    fram.o(i.SpiFramRdRdsr) refers to fram.o(i.SpiFramRdByte) for SpiFramRdByte
    fram.o(i.SpiFramRdRdsr) refers to stm32f10x_gpio.o(i.GPIO_SetBits) for GPIO_SetBits
    fram.o(i.SpiFramRead) refers to fram.o(i.SpiFramWaitFree) for SpiFramWaitFree
    fram.o(i.SpiFramRead) refers to stm32f10x_gpio.o(i.GPIO_ResetBits) for GPIO_ResetBits
    fram.o(i.SpiFramRead) refers to fram.o(i.SpiFramWrByte) for SpiFramWrByte
    fram.o(i.SpiFramRead) refers to fram.o(i.SpiFramRdByte) for SpiFramRdByte
    fram.o(i.SpiFramRead) refers to stm32f10x_gpio.o(i.GPIO_SetBits) for GPIO_SetBits
    fram.o(i.SpiFramWaitFree) refers to fram.o(i.SpiFramRdRdsr) for SpiFramRdRdsr
    fram.o(i.SpiFramWrByte) refers to stm32f10x_spi.o(i.SPI_I2S_GetFlagStatus) for SPI_I2S_GetFlagStatus
    fram.o(i.SpiFramWrByte) refers to stm32f10x_spi.o(i.SPI_I2S_SendData) for SPI_I2S_SendData
    fram.o(i.SpiFramWrByte) refers to stm32f10x_spi.o(i.SPI_I2S_ReceiveData) for SPI_I2S_ReceiveData
    fram.o(i.SpiFramWrWrdi) refers to fram.o(i.SpiFramWaitFree) for SpiFramWaitFree
    fram.o(i.SpiFramWrWrdi) refers to stm32f10x_gpio.o(i.GPIO_ResetBits) for GPIO_ResetBits
    fram.o(i.SpiFramWrWrdi) refers to fram.o(i.SpiFramWrByte) for SpiFramWrByte
    fram.o(i.SpiFramWrWrdi) refers to stm32f10x_gpio.o(i.GPIO_SetBits) for GPIO_SetBits
    fram.o(i.SpiFramWrWren) refers to fram.o(i.SpiFramWaitFree) for SpiFramWaitFree
    fram.o(i.SpiFramWrWren) refers to stm32f10x_gpio.o(i.GPIO_ResetBits) for GPIO_ResetBits
    fram.o(i.SpiFramWrWren) refers to fram.o(i.SpiFramWrByte) for SpiFramWrByte
    fram.o(i.SpiFramWrWren) refers to stm32f10x_gpio.o(i.GPIO_SetBits) for GPIO_SetBits
    fram.o(i.SpiFramWrite) refers to fram.o(i.SpiFramPageWrite) for SpiFramPageWrite
    systask.o(i.AccMonitor) refers to stm32f10x_gpio.o(i.GPIO_ReadInputDataBit) for GPIO_ReadInputDataBit
    systask.o(i.AccMonitor) refers to stm32f10x_gpio.o(i.GPIO_SetBits) for GPIO_SetBits
    systask.o(i.AccMonitor) refers to protocol.o(i.ProUpAccOnOff) for ProUpAccOnOff
    systask.o(i.AccMonitor) refers to systask.o(i.AccOnOffDataAppend) for AccOnOffDataAppend
    systask.o(i.AccMonitor) refers to selfdef.o(i.StrLen) for StrLen
    systask.o(i.AccMonitor) refers to driver.o(i.LocalDebug) for LocalDebug
    systask.o(i.AccMonitor) refers to protocol.o(i.ProUpWorkPara) for ProUpWorkPara
    systask.o(i.AccMonitor) refers to stm32f10x_gpio.o(i.GPIO_ResetBits) for GPIO_ResetBits
    systask.o(i.AccMonitor) refers to syspara.o(.bss) for sys_work_para_struct
    systask.o(i.AccMonitor) refers to protocol.o(.bss) for pro_struct
    systask.o(i.AccOnOffDataAppend) refers to selfdef.o(i.MemCpy) for MemCpy
    systask.o(i.AccOnOffDataAppend) refers to systask.o(i.AccOnOffStatisticDataSave) for AccOnOffStatisticDataSave
    systask.o(i.AccOnOffDataAppend) refers to protocol.o(i.ProUpWorkTimeStatistic) for ProUpWorkTimeStatistic
    systask.o(i.AccOnOffDataAppend) refers to syspara.o(.bss) for sys_data_struct
    systask.o(i.AccOnOffDataInit) refers to selfdef.o(i.MemCpy) for MemCpy
    systask.o(i.AccOnOffDataInit) refers to systask.o(i.AccOnOffStatisticDataSave) for AccOnOffStatisticDataSave
    systask.o(i.AccOnOffDataInit) refers to syspara.o(.bss) for sys_data_struct
    systask.o(i.AccOnOffStatisticDataCheck) refers to selfdef.o(i.U8SumCheck) for U8SumCheck
    systask.o(i.AccOnOffStatisticDataCheck) refers to systask.o(i.AccOnOffDataInit) for AccOnOffDataInit
    systask.o(i.AccOnOffStatisticDataCheck) refers to syspara.o(.bss) for sys_data_struct
    systask.o(i.AccOnOffStatisticDataSave) refers to selfdef.o(i.U8SumCheck) for U8SumCheck
    systask.o(i.AccOnOffStatisticDataSave) refers to fram.o(i.SpiFramWrite) for SpiFramWrite
    systask.o(i.AccOnOffStatisticDataSave) refers to selfdef.o(i.StrLen) for StrLen
    systask.o(i.AccOnOffStatisticDataSave) refers to driver.o(i.LocalDebug) for LocalDebug
    systask.o(i.AccOnOffStatisticDataSave) refers to syspara.o(.bss) for sys_data_struct
    systask.o(i.DayChangeMonitor) refers to systask.o(i.AccOnOffStatisticDataCheck) for AccOnOffStatisticDataCheck
    systask.o(i.DayChangeMonitor) refers to selfdef.o(i.MemCmp) for MemCmp
    systask.o(i.DayChangeMonitor) refers to fram.o(i.SpiFramWrite) for SpiFramWrite
    systask.o(i.DayChangeMonitor) refers to selfdef.o(i.StrLen) for StrLen
    systask.o(i.DayChangeMonitor) refers to driver.o(i.LocalDebug) for LocalDebug
    systask.o(i.DayChangeMonitor) refers to systask.o(i.AccOnOffDataAppend) for AccOnOffDataAppend
    systask.o(i.DayChangeMonitor) refers to systask.o(i.AccOnOffDataInit) for AccOnOffDataInit
    systask.o(i.DayChangeMonitor) refers to protocol.o(i.ProUpWorkTimeStatistic) for ProUpWorkTimeStatistic
    systask.o(i.DayChangeMonitor) refers to syspara.o(.bss) for sys_data_struct
    systask.o(i.GprsMonitor) refers to selfdef.o(i.StrLen) for StrLen
    systask.o(i.GprsMonitor) refers to driver.o(i.LocalDebug) for LocalDebug
    systask.o(i.GprsMonitor) refers to protocol.o(.bss) for pro_struct
    systask.o(i.GprsMonitor) refers to gprs.o(.bss) for gsm_misc_struct
    systask.o(i.GpsAntMonitor) refers to stm32f10x_gpio.o(i.GPIO_ReadInputDataBit) for GPIO_ReadInputDataBit
    systask.o(i.GpsAntMonitor) refers to protocol.o(i.ProUpAlarm) for ProUpAlarm
    systask.o(i.GpsAntMonitor) refers to selfdef.o(i.StrLen) for StrLen
    systask.o(i.GpsAntMonitor) refers to driver.o(i.LocalDebug) for LocalDebug
    systask.o(i.GpsAntMonitor) refers to systask.o(.data) for ant_on_sec_counter
    systask.o(i.GpsAntMonitor) refers to syspara.o(.bss) for sys_work_para_struct
    systask.o(i.GpsMonitor) refers to protocol.o(i.ProUpAlarm) for ProUpAlarm
    systask.o(i.GpsMonitor) refers to selfdef.o(i.StrLen) for StrLen
    systask.o(i.GpsMonitor) refers to driver.o(i.LocalDebug) for LocalDebug
    systask.o(i.GpsMonitor) refers to stm32f10x_gpio.o(i.GPIO_ResetBits) for GPIO_ResetBits
    systask.o(i.GpsMonitor) refers to stm32f10x_usart.o(i.USART_DeInit) for USART_DeInit
    systask.o(i.GpsMonitor) refers to systask.o(i.SysDelay) for SysDelay
    systask.o(i.GpsMonitor) refers to driver.o(i.UsartInit) for UsartInit
    systask.o(i.GpsMonitor) refers to stm32f10x_gpio.o(i.GPIO_SetBits) for GPIO_SetBits
    systask.o(i.GpsMonitor) refers to gps.o(.bss) for gps_struct
    systask.o(i.GpsMonitor) refers to systask.o(.data) for s_sec_counter_2
    systask.o(i.GpsMonitor) refers to syspara.o(.bss) for sys_work_para_struct
    systask.o(i.GsmCsqCheckMonitor) refers to syspara.o(.bss) for sys_misc_run_struct
    systask.o(i.KeyDataSave) refers to syspara.o(i.SysKeyDataSave) for SysKeyDataSave
    systask.o(i.KeyDataSave) refers to systask.o(.data) for sec_counter
    systask.o(i.LatLongPositionMonitor) refers to gps.o(i.GetGpsInfo) for GetGpsInfo
    systask.o(i.LatLongPositionMonitor) refers to selfdef.o(i.MemCpy) for MemCpy
    systask.o(i.LatLongPositionMonitor) refers to protocol.o(i.ProUpLatLongPosition) for ProUpLatLongPosition
    systask.o(i.LatLongPositionMonitor) refers to selfdef.o(i.RamZero) for RamZero
    systask.o(i.LatLongPositionMonitor) refers to syspara.o(.bss) for sys_work_para_struct
    systask.o(i.LatLongPositionMonitor) refers to systask.o(.data) for s_counter
    systask.o(i.LatLongPositionMonitor) refers to gps.o(.bss) for gps_struct
    systask.o(i.LsnalLockMonitor) refers to syspara.o(i.TermReset) for TermReset
    systask.o(i.LsnalLockMonitor) refers to syspara.o(i.SysCommParaInit) for SysCommParaInit
    systask.o(i.LsnalLockMonitor) refers to syspara.o(i.SysPrivateParaWrite) for SysPrivateParaWrite
    systask.o(i.LsnalLockMonitor) refers to systask.o(.data) for lsnal_counter
    systask.o(i.LsnalLockMonitor) refers to syspara.o(.bss) for sys_work_para_struct
    systask.o(i.PowerMonitor) refers to stm32f10x_gpio.o(i.GPIO_ReadInputDataBit) for GPIO_ReadInputDataBit
    systask.o(i.PowerMonitor) refers to protocol.o(i.ProUpAlarm) for ProUpAlarm
    systask.o(i.PowerMonitor) refers to selfdef.o(i.StrLen) for StrLen
    systask.o(i.PowerMonitor) refers to driver.o(i.LocalDebug) for LocalDebug
    systask.o(i.PowerMonitor) refers to syspara.o(i.TermReset) for TermReset
    systask.o(i.PowerMonitor) refers to systask.o(.data) for s_pwr_down_sec_counter
    systask.o(i.PowerMonitor) refers to syspara.o(.bss) for sys_work_para_struct
    systask.o(i.RingSmsMonitor) refers to gprs.o(.bss) for gsm_misc_struct
    systask.o(i.ShellMonitor) refers to stm32f10x_gpio.o(i.GPIO_ReadInputDataBit) for GPIO_ReadInputDataBit
    systask.o(i.ShellMonitor) refers to protocol.o(i.ProUpAlarm) for ProUpAlarm
    systask.o(i.ShellMonitor) refers to selfdef.o(i.StrLen) for StrLen
    systask.o(i.ShellMonitor) refers to driver.o(i.LocalDebug) for LocalDebug
    systask.o(i.ShellMonitor) refers to systask.o(.data) for shell_on_sec_counter
    systask.o(i.ShellMonitor) refers to syspara.o(.bss) for sys_work_para_struct
    systask.o(i.SpeedMonitor) refers to protocol.o(i.ProUpAlarm) for ProUpAlarm
    systask.o(i.SpeedMonitor) refers to selfdef.o(i.StrLen) for StrLen
    systask.o(i.SpeedMonitor) refers to driver.o(i.LocalDebug) for LocalDebug
    systask.o(i.SpeedMonitor) refers to syspara.o(.bss) for sys_private_para_struct
    systask.o(i.SpeedMonitor) refers to systask.o(.data) for s_over_speed_sec_counter
    systask.o(i.SysDelay) refers to driver.o(i.FeedWtd) for FeedWtd
    systask.o(i.SysDelay) refers to driver.o(i.DriverMain) for DriverMain
    systask.o(i.SysDelay) refers to gprs.o(i.GprsMain) for GprsMain
    systask.o(i.SysDelay) refers to gps.o(i.GpsMain) for GpsMain
    systask.o(i.SysDelay) refers to localcomm.o(i.LocalCommMain) for LocalCommMain
    systask.o(i.SysDelay) refers to can.o(i.CanMain) for CanMain
    systask.o(i.SysDelay) refers to syspara.o(.bss) for sys_misc_run_struct
    systask.o(i.SysNoTaskDelay) refers to driver.o(i.FeedWtd) for FeedWtd
    systask.o(i.SysNoTaskDelay) refers to syspara.o(.bss) for sys_misc_run_struct
    systask.o(i.SysTaskMain) refers to driver.o(i.RtcGetCalendarTime) for RtcGetCalendarTime
    systask.o(i.SysTaskMain) refers to systask.o(i.TerminalHeart) for TerminalHeart
    systask.o(i.SysTaskMain) refers to systask.o(i.DayChangeMonitor) for DayChangeMonitor
    systask.o(i.SysTaskMain) refers to systask.o(i.AccMonitor) for AccMonitor
    systask.o(i.SysTaskMain) refers to systask.o(i.PowerMonitor) for PowerMonitor
    systask.o(i.SysTaskMain) refers to systask.o(i.ShellMonitor) for ShellMonitor
    systask.o(i.SysTaskMain) refers to systask.o(i.GpsAntMonitor) for GpsAntMonitor
    systask.o(i.SysTaskMain) refers to systask.o(i.GpsMonitor) for GpsMonitor
    systask.o(i.SysTaskMain) refers to can.o(i.CanMonitor) for CanMonitor
    systask.o(i.SysTaskMain) refers to systask.o(i.GprsMonitor) for GprsMonitor
    systask.o(i.SysTaskMain) refers to systask.o(i.SpeedMonitor) for SpeedMonitor
    systask.o(i.SysTaskMain) refers to systask.o(i.TrailerMonitor) for TrailerMonitor
    systask.o(i.SysTaskMain) refers to systask.o(i.VoltageMonitor) for VoltageMonitor
    systask.o(i.SysTaskMain) refers to systask.o(i.GsmCsqCheckMonitor) for GsmCsqCheckMonitor
    systask.o(i.SysTaskMain) refers to systask.o(i.LatLongPositionMonitor) for LatLongPositionMonitor
    systask.o(i.SysTaskMain) refers to protocol.o(i.ProPeriodTx) for ProPeriodTx
    systask.o(i.SysTaskMain) refers to systask.o(i.RingSmsMonitor) for RingSmsMonitor
    systask.o(i.SysTaskMain) refers to systask.o(i.LsnalLockMonitor) for LsnalLockMonitor
    systask.o(i.SysTaskMain) refers to systask.o(i.KeyDataSave) for KeyDataSave
    systask.o(i.SysTaskMain) refers to syspara.o(.bss) for sys_misc_run_struct
    systask.o(i.SysTaskMain) refers to systask.o(.data) for sys_rtc_cur_val
    systask.o(i.SysTaskMain) refers to protocol.o(.bss) for pro_struct
    systask.o(i.TermEnterSleep) refers to syspara.o(i.SysKeyDataSave) for SysKeyDataSave
    systask.o(i.TermEnterSleep) refers to gprs.o(i.GsmDisLcpAndIntoSleep) for GsmDisLcpAndIntoSleep
    systask.o(i.TermEnterSleep) refers to selfdef.o(i.StrLen) for StrLen
    systask.o(i.TermEnterSleep) refers to driver.o(i.LocalDebug) for LocalDebug
    systask.o(i.TermEnterSleep) refers to systask.o(i.TermOffPwrAndPeriDeInit) for TermOffPwrAndPeriDeInit
    systask.o(i.TermEnterSleep) refers to driver.o(i.FeedWtd) for FeedWtd
    systask.o(i.TermEnterSleep) refers to stm32f10x_rtc.o(i.RTC_WaitForLastTask) for RTC_WaitForLastTask
    systask.o(i.TermEnterSleep) refers to stm32f10x_rtc.o(i.RTC_ITConfig) for RTC_ITConfig
    systask.o(i.TermEnterSleep) refers to selfdef.o(i.RamZero) for RamZero
    systask.o(i.TermEnterSleep) refers to stm32f10x_rtc.o(i.RTC_GetCounter) for RTC_GetCounter
    systask.o(i.TermEnterSleep) refers to stm32f10x_rtc.o(i.RTC_SetAlarm) for RTC_SetAlarm
    systask.o(i.TermEnterSleep) refers to stm32f10x_pwr.o(i.PWR_EnterSTOPMode) for PWR_EnterSTOPMode
    systask.o(i.TermEnterSleep) refers to stm32f10x_gpio.o(i.GPIO_SetBits) for GPIO_SetBits
    systask.o(i.TermEnterSleep) refers to stm32f10x_gpio.o(i.GPIO_ReadInputDataBit) for GPIO_ReadInputDataBit
    systask.o(i.TermEnterSleep) refers to systask.o(i.TermOnPwrAndPeriReInit) for TermOnPwrAndPeriReInit
    systask.o(i.TermEnterSleep) refers to driver.o(i.RtcGetCalendarTime) for RtcGetCalendarTime
    systask.o(i.TermEnterSleep) refers to systask.o(i.SysNoTaskDelay) for SysNoTaskDelay
    systask.o(i.TermEnterSleep) refers to gprs.o(i.GprsSendAtCmd) for GprsSendAtCmd
    systask.o(i.TermEnterSleep) refers to syspara.o(i.TermReset) for TermReset
    systask.o(i.TermEnterSleep) refers to syspara.o(.bss) for sys_work_para_struct
    systask.o(i.TermEnterSleep) refers to protocol.o(.bss) for pro_struct
    systask.o(i.TermEnterSleep) refers to gprs.o(.bss) for gsm_misc_struct
    systask.o(i.TermEnterSleep) refers to ftp.o(.bss) for ftp_struct
    systask.o(i.TermOffPwrAndPeriDeInit) refers to stm32f10x_gpio.o(i.GPIO_ResetBits) for GPIO_ResetBits
    systask.o(i.TermOffPwrAndPeriDeInit) refers to stm32f10x_gpio.o(i.GPIO_SetBits) for GPIO_SetBits
    systask.o(i.TermOffPwrAndPeriDeInit) refers to driver.o(i.SysTickDisable) for SysTickDisable
    systask.o(i.TermOnPwrAndPeriReInit) refers to driver.o(i.SysClkConfigStop) for SysClkConfigStop
    systask.o(i.TermOnPwrAndPeriReInit) refers to stm32f10x_rcc.o(i.RCC_APB2PeriphClockCmd) for RCC_APB2PeriphClockCmd
    systask.o(i.TermOnPwrAndPeriReInit) refers to stm32f10x_gpio.o(i.GPIO_SetBits) for GPIO_SetBits
    systask.o(i.TermOnPwrAndPeriReInit) refers to driver.o(i.UsartInit) for UsartInit
    systask.o(i.TermOnPwrAndPeriReInit) refers to driver.o(i.SysTickInit) for SysTickInit
    systask.o(i.TermOnPwrAndPeriReInit) refers to fram.o(i.SpiFramInit) for SpiFramInit
    systask.o(i.TermOnPwrAndPeriReInit) refers to driver.o(i.AdcInit) for AdcInit
    systask.o(i.TermOnPwrAndPeriReInit) refers to driver.o(i.DmaInit) for DmaInit
    systask.o(i.TermOnPwrAndPeriReInit) refers to driver.o(i.SysTickEnable) for SysTickEnable
    systask.o(i.TermOnPwrAndPeriReInit) refers to driver.o(i.GpsUartParaInit) for GpsUartParaInit
    systask.o(i.TerminalHeart) refers to protocol.o(i.ProUpHeartBeat) for ProUpHeartBeat
    systask.o(i.TerminalHeart) refers to syspara.o(.bss) for sys_misc_run_struct
    systask.o(i.TrailerMonitor) refers to protocol.o(i.ProUpAlarm) for ProUpAlarm
    systask.o(i.TrailerMonitor) refers to selfdef.o(i.StrLen) for StrLen
    systask.o(i.TrailerMonitor) refers to driver.o(i.LocalDebug) for LocalDebug
    systask.o(i.TrailerMonitor) refers to syspara.o(.bss) for sys_work_para_struct
    systask.o(i.TrailerMonitor) refers to systask.o(.data) for s_trailer_sec_counter
    systask.o(i.VoltageMonitor) refers to protocol.o(i.ProUpAlarm) for ProUpAlarm
    systask.o(i.VoltageMonitor) refers to selfdef.o(i.StrLen) for StrLen
    systask.o(i.VoltageMonitor) refers to driver.o(i.LocalDebug) for LocalDebug
    systask.o(i.VoltageMonitor) refers to stm32f10x_adc.o(i.ADC_SoftwareStartConvCmd) for ADC_SoftwareStartConvCmd
    systask.o(i.VoltageMonitor) refers to syspara.o(.bss) for sys_private_para_struct
    systask.o(i.VoltageMonitor) refers to systask.o(.data) for s_low_voltage_sec_counter
    ftp.o(i.FtpAddrAnalysis) refers to selfdef.o(i.StrLen) for StrLen
    ftp.o(i.FtpAddrAnalysis) refers to selfdef.o(i.MemCmp) for MemCmp
    ftp.o(i.FtpAddrAnalysis) refers to selfdef.o(i.MemCpy) for MemCpy
    ftp.o(i.FtpAddrAnalysis) refers to ftp.o(.bss) for ftp_struct
    ftp.o(i.FtpAddrAnalysis) refers to syspara.o(.constdata) for sys_const_para_struct
    ftp.o(i.FtpConnect) refers to ftp.o(i.FtpIpPortInit) for FtpIpPortInit
    ftp.o(i.FtpConnect) refers to ftp.o(i.FtpTx) for FtpTx
    ftp.o(i.FtpConnect) refers to ftp.o(i.FtpDelay) for FtpDelay
    ftp.o(i.FtpConnect) refers to selfdef.o(i.StrLen) for StrLen
    ftp.o(i.FtpConnect) refers to selfdef.o(i.SubMatch) for SubMatch
    ftp.o(i.FtpConnect) refers to ftp.o(.bss) for ftp_struct
    ftp.o(i.FtpDelay) refers to driver.o(i.DriverMain) for DriverMain
    ftp.o(i.FtpDelay) refers to driver.o(i.FeedWtd) for FeedWtd
    ftp.o(i.FtpDelay) refers to ppp.o(i.PppMainProcess) for PppMainProcess
    ftp.o(i.FtpDelay) refers to syspara.o(.bss) for sys_misc_run_struct
    ftp.o(i.FtpDelay) refers to driver.o(.bss) for g_gprs_uart_struct
    ftp.o(i.FtpDelay) refers to ftp.o(.bss) for ftp_struct
    ftp.o(i.FtpFileSave) refers to flash.o(i.FlashWrite) for FlashWrite
    ftp.o(i.FtpFileSave) refers to localcomm.o(i.LocalCommFtpState) for LocalCommFtpState
    ftp.o(i.FtpFileSave) refers to ftp.o(.bss) for ftp_struct
    ftp.o(i.FtpGetFile) refers to ftp.o(i.FtpIpPortInit) for FtpIpPortInit
    ftp.o(i.FtpGetFile) refers to selfdef.o(i.StrLen) for StrLen
    ftp.o(i.FtpGetFile) refers to selfdef.o(i.MemCpy) for MemCpy
    ftp.o(i.FtpGetFile) refers to ftp.o(i.FtpTx) for FtpTx
    ftp.o(i.FtpGetFile) refers to ftp.o(i.FtpDelay) for FtpDelay
    ftp.o(i.FtpGetFile) refers to ftp.o(.bss) for ftp_struct
    ftp.o(i.FtpGetSize) refers to selfdef.o(i.StrLen) for StrLen
    ftp.o(i.FtpGetSize) refers to selfdef.o(i.MemCpy) for MemCpy
    ftp.o(i.FtpGetSize) refers to ftp.o(i.FtpTx) for FtpTx
    ftp.o(i.FtpGetSize) refers to ftp.o(i.FtpDelay) for FtpDelay
    ftp.o(i.FtpGetSize) refers to selfdef.o(i.SubMatch) for SubMatch
    ftp.o(i.FtpGetSize) refers to ftp.o(.bss) for ftp_struct
    ftp.o(i.FtpIpPortInit) refers to selfdef.o(i.MemCpy) for MemCpy
    ftp.o(i.FtpIpPortInit) refers to ftp.o(.bss) for ftp_struct
    ftp.o(i.FtpIpPortInit) refers to ppp.o(.bss) for g_ppp_struct
    ftp.o(i.FtpMain) refers to stm32f10x_gpio.o(i.GPIO_ResetBits) for GPIO_ResetBits
    ftp.o(i.FtpMain) refers to localcomm.o(i.LocalCommFtpState) for LocalCommFtpState
    ftp.o(i.FtpMain) refers to fram.o(i.SpiFramWrite) for SpiFramWrite
    ftp.o(i.FtpMain) refers to driver.o(i.FeedWtd) for FeedWtd
    ftp.o(i.FtpMain) refers to flash.o(i.FlashErase) for FlashErase
    ftp.o(i.FtpMain) refers to ftp.o(i.FtpConnect) for FtpConnect
    ftp.o(i.FtpMain) refers to ftp.o(i.FtpFun) for FtpFun
    ftp.o(i.FtpMain) refers to ftp.o(i.FtpGetFile) for FtpGetFile
    ftp.o(i.FtpMain) refers to syspara.o(i.SysBootParaWrite) for SysBootParaWrite
    ftp.o(i.FtpMain) refers to stm32f10x_gpio.o(i.GPIO_SetBits) for GPIO_SetBits
    ftp.o(i.FtpMain) refers to ftp.o(i.ThagFtpFun) for ThagFtpFun
    ftp.o(i.FtpMain) refers to ftp.o(i.FtpTerminate) for FtpTerminate
    ftp.o(i.FtpMain) refers to syspara.o(.bss) for sys_work_para_struct
    ftp.o(i.FtpMain) refers to ftp.o(.bss) for ftp_struct
    ftp.o(i.FtpMain) refers to ftp.o(i.FtpTxUserName) for FtpTxUserName
    ftp.o(i.FtpMain) refers to ftp.o(i.FtpTxPassword) for FtpTxPassword
    ftp.o(i.FtpMain) refers to ftp.o(i.FtpTxCwd) for FtpTxCwd
    ftp.o(i.FtpMain) refers to ftp.o(i.FtpTxTypeI) for FtpTxTypeI
    ftp.o(i.FtpMain) refers to ftp.o(i.FtpGetSize) for FtpGetSize
    ftp.o(i.FtpMain) refers to ftp.o(i.FtpTxPasv) for FtpTxPasv
    ftp.o(i.FtpProcess) refers to selfdef.o(i.MemCmp) for MemCmp
    ftp.o(i.FtpProcess) refers to selfdef.o(i.U8ToUint32) for U8ToUint32
    ftp.o(i.FtpProcess) refers to selfdef.o(i.MemCpy) for MemCpy
    ftp.o(i.FtpProcess) refers to ftp.o(i.FtpFileSave) for FtpFileSave
    ftp.o(i.FtpProcess) refers to ftp.o(i.FtpIpPortInit) for FtpIpPortInit
    ftp.o(i.FtpProcess) refers to ftp.o(i.FtpTx) for FtpTx
    ftp.o(i.FtpProcess) refers to ftp.o(.bss) for ftp_struct
    ftp.o(i.FtpTerminate) refers to ftp.o(i.FtpIpPortInit) for FtpIpPortInit
    ftp.o(i.FtpTerminate) refers to ftp.o(i.FtpTx) for FtpTx
    ftp.o(i.FtpTerminate) refers to ftp.o(i.FtpDelay) for FtpDelay
    ftp.o(i.FtpTerminate) refers to ftp.o(.bss) for ftp_struct
    ftp.o(i.FtpTx) refers to selfdef.o(i.Uint32ToU8) for Uint32ToU8
    ftp.o(i.FtpTx) refers to rt_memcpy_v6.o(.text) for __aeabi_memcpy
    ftp.o(i.FtpTx) refers to ppp.o(i.TcpUdpHeadCheck) for TcpUdpHeadCheck
    ftp.o(i.FtpTx) refers to ppp.o(i.IpTx) for IpTx
    ftp.o(i.FtpTx) refers to ftp.o(.bss) for ftp_struct
    ftp.o(i.FtpTx) refers to ppp.o(.bss) for g_ppp_struct
    ftp.o(i.FtpTxCwd) refers to selfdef.o(i.StrLen) for StrLen
    ftp.o(i.FtpTxCwd) refers to selfdef.o(i.MemCpy) for MemCpy
    ftp.o(i.FtpTxCwd) refers to ftp.o(i.FtpTx) for FtpTx
    ftp.o(i.FtpTxCwd) refers to ftp.o(i.FtpDelay) for FtpDelay
    ftp.o(i.FtpTxCwd) refers to selfdef.o(i.SubMatch) for SubMatch
    ftp.o(i.FtpTxCwd) refers to ftp.o(.bss) for ftp_struct
    ftp.o(i.FtpTxPassword) refers to selfdef.o(i.StrLen) for StrLen
    ftp.o(i.FtpTxPassword) refers to selfdef.o(i.MemCpy) for MemCpy
    ftp.o(i.FtpTxPassword) refers to ftp.o(i.FtpTx) for FtpTx
    ftp.o(i.FtpTxPassword) refers to ftp.o(i.FtpDelay) for FtpDelay
    ftp.o(i.FtpTxPassword) refers to selfdef.o(i.SubMatch) for SubMatch
    ftp.o(i.FtpTxPassword) refers to ftp.o(.bss) for ftp_struct
    ftp.o(i.FtpTxPasv) refers to selfdef.o(i.StrLen) for StrLen
    ftp.o(i.FtpTxPasv) refers to ftp.o(i.FtpTx) for FtpTx
    ftp.o(i.FtpTxPasv) refers to ftp.o(i.FtpDelay) for FtpDelay
    ftp.o(i.FtpTxPasv) refers to selfdef.o(i.SubMatch) for SubMatch
    ftp.o(i.FtpTxPasv) refers to ftp.o(.bss) for ftp_struct
    ftp.o(i.FtpTxTypeI) refers to selfdef.o(i.StrLen) for StrLen
    ftp.o(i.FtpTxTypeI) refers to ftp.o(i.FtpTx) for FtpTx
    ftp.o(i.FtpTxTypeI) refers to ftp.o(i.FtpDelay) for FtpDelay
    ftp.o(i.FtpTxTypeI) refers to selfdef.o(i.SubMatch) for SubMatch
    ftp.o(i.FtpTxTypeI) refers to ftp.o(.bss) for ftp_struct
    ftp.o(i.FtpTxUserName) refers to selfdef.o(i.StrLen) for StrLen
    ftp.o(i.FtpTxUserName) refers to selfdef.o(i.MemCpy) for MemCpy
    ftp.o(i.FtpTxUserName) refers to ftp.o(i.FtpTx) for FtpTx
    ftp.o(i.FtpTxUserName) refers to ftp.o(i.FtpDelay) for FtpDelay
    ftp.o(i.FtpTxUserName) refers to selfdef.o(i.SubMatch) for SubMatch
    ftp.o(i.FtpTxUserName) refers to ftp.o(.bss) for ftp_struct
    ftp.o(i.FtpWaitTransferComplete) refers to ftp.o(i.FtpDelay) for FtpDelay
    ftp.o(i.FtpWaitTransferComplete) refers to selfdef.o(i.StrLen) for StrLen
    ftp.o(i.FtpWaitTransferComplete) refers to selfdef.o(i.SubMatch) for SubMatch
    ftp.o(i.FtpWaitTransferComplete) refers to ftp.o(.bss) for ftp_struct
    ftp.o(i.ThagFtpFun) refers to selfdef.o(i.Crc16Verify) for Crc16Verify
    ftp.o(i.ThagFtpFun) refers to fram.o(i.SpiFramWrite) for SpiFramWrite
    ftp.o(i.ThagFtpFun) refers to ftp.o(.bss) for ftp_struct
    sms.o(i.SmsAckPacket) refers to _printf_pad.o(.text) for _printf_pre_padding
    sms.o(i.SmsAckPacket) refers to _printf_percent.o(.ARM.Collect$$_printf_percent$$00000000) for _printf_percent
    sms.o(i.SmsAckPacket) refers to _printf_d.o(.ARM.Collect$$_printf_percent$$00000009) for _printf_d
    sms.o(i.SmsAckPacket) refers to _printf_dec.o(.text) for _printf_int_dec
    sms.o(i.SmsAckPacket) refers to _printf_u.o(.ARM.Collect$$_printf_percent$$0000000A) for _printf_u
    sms.o(i.SmsAckPacket) refers to _printf_x.o(.ARM.Collect$$_printf_percent$$0000000C) for _printf_x
    sms.o(i.SmsAckPacket) refers to _printf_hex_int.o(.text) for _printf_longlong_hex
    sms.o(i.SmsAckPacket) refers to selfdef.o(i.StrLen) for StrLen
    sms.o(i.SmsAckPacket) refers to selfdef.o(i.MemCpy) for MemCpy
    sms.o(i.SmsAckPacket) refers to gps.o(i.GetGpsInfo) for GetGpsInfo
    sms.o(i.SmsAckPacket) refers to __2sprintf.o(.text) for __2sprintf
    sms.o(i.SmsAnalysis) refers to rt_memcpy_w.o(.text) for __aeabi_memcpy4
    sms.o(i.SmsAnalysis) refers to selfdef.o(i.StrLen) for StrLen
    sms.o(i.SmsAnalysis) refers to selfdef.o(i.SubMatch) for SubMatch
    sms.o(i.SmsAnalysis) refers to selfdef.o(i.MemCmp) for MemCmp
    sms.o(i.SmsAnalysis) refers to sms.o(i.SmsParaReInit) for SmsParaReInit
    sms.o(i.SmsAnalysis) refers to sms.o(i.SmsParaQuery) for SmsParaQuery
    sms.o(i.SmsAnalysis) refers to sms.o(i.SmsErrorAnalysis) for SmsErrorAnalysis
    sms.o(i.SmsAnalysis) refers to sms.o(i.SmsParaSet) for SmsParaSet
    sms.o(i.SmsAnalysis) refers to sms.o(i.SmsLock) for SmsLock
    sms.o(i.SmsAnalysis) refers to sms.o(i.SmsUnlock) for SmsUnlock
    sms.o(i.SmsAnalysis) refers to sms.o(i.SmsProgramUpgrade) for SmsProgramUpgrade
    sms.o(i.SmsAnalysis) refers to sms.o(i.SmsTx) for SmsTx
    sms.o(i.SmsAnalysis) refers to gprs.o(i.GprsDelay) for GprsDelay
    sms.o(i.SmsAnalysis) refers to syspara.o(i.TermReset) for TermReset
    sms.o(i.SmsAnalysis) refers to gprs.o(i.GprsSwitchGprsDataMode) for GprsSwitchGprsDataMode
    sms.o(i.SmsAnalysis) refers to ftp.o(i.FtpMain) for FtpMain
    sms.o(i.SmsAnalysis) refers to gprs.o(i.GprsSwitchAtMode) for GprsSwitchAtMode
    sms.o(i.SmsAnalysis) refers to syspara.o(i.SysReset) for SysReset
    sms.o(i.SmsAnalysis) refers to sms.o(.bss) for sms_struct
    sms.o(i.SmsAnalysis) refers to syspara.o(.bss) for sys_private_para_struct
    sms.o(i.SmsAnalysis) refers to syspara.o(.constdata) for sys_const_para_struct
    sms.o(i.SmsAnalysis) refers to gprs.o(.bss) for gsm_misc_struct
    sms.o(i.SmsDecodePdu) refers to selfdef.o(i.AsciiToHex) for AsciiToHex
    sms.o(i.SmsDecodePdu) refers to selfdef.o(i.StrLen) for StrLen
    sms.o(i.SmsDecodePdu) refers to selfdef.o(i.MemCpy) for MemCpy
    sms.o(i.SmsDecodePdu) refers to sms.o(i.SmsNumDecode) for SmsNumDecode
    sms.o(i.SmsDecodePdu) refers to sms.o(i.SmsTextDecode) for SmsTextDecode
    sms.o(i.SmsDecodePdu) refers to syspara.o(.constdata) for sys_const_para_struct
    sms.o(i.SmsDecodePdu) refers to sms.o(.bss) for sms_struct
    sms.o(i.SmsEncodePdu) refers to selfdef.o(i.HexToAscii) for HexToAscii
    sms.o(i.SmsEncodePdu) refers to selfdef.o(i.StrLen) for StrLen
    sms.o(i.SmsEncodePdu) refers to sms.o(i.SmsNumEncode) for SmsNumEncode
    sms.o(i.SmsEncodePdu) refers to sms.o(i.SmsTextEncode) for SmsTextEncode
    sms.o(i.SmsEncodePdu) refers to sms.o(.bss) for sms_struct
    sms.o(i.SmsErrorAnalysis) refers to _printf_pad.o(.text) for _printf_pre_padding
    sms.o(i.SmsErrorAnalysis) refers to _printf_percent.o(.ARM.Collect$$_printf_percent$$00000000) for _printf_percent
    sms.o(i.SmsErrorAnalysis) refers to _printf_x.o(.ARM.Collect$$_printf_percent$$0000000C) for _printf_x
    sms.o(i.SmsErrorAnalysis) refers to _printf_hex_int.o(.text) for _printf_longlong_hex
    sms.o(i.SmsErrorAnalysis) refers to selfdef.o(i.StrLen) for StrLen
    sms.o(i.SmsErrorAnalysis) refers to selfdef.o(i.MemCpy) for MemCpy
    sms.o(i.SmsErrorAnalysis) refers to selfdef.o(i.Uint32ToU8) for Uint32ToU8
    sms.o(i.SmsErrorAnalysis) refers to __2sprintf.o(.text) for __2sprintf
    sms.o(i.SmsErrorAnalysis) refers to gprs.o(.bss) for gsm_misc_struct
    sms.o(i.SmsErrorAnalysis) refers to ppp.o(.bss) for g_ppp_struct
    sms.o(i.SmsErrorAnalysis) refers to gps.o(.bss) for gps_struct
    sms.o(i.SmsErrorAnalysis) refers to can.o(.bss) for can_struct
    sms.o(i.SmsErrorAnalysis) refers to syspara.o(.bss) for lock_record_struct
    sms.o(i.SmsLock) refers to selfdef.o(i.RamZero) for RamZero
    sms.o(i.SmsLock) refers to can.o(i.CanDataWrite) for CanDataWrite
    sms.o(i.SmsLock) refers to fram.o(i.SpiFramWrite) for SpiFramWrite
    sms.o(i.SmsLock) refers to sms.o(i.SmsAckPacket) for SmsAckPacket
    sms.o(i.SmsLock) refers to can.o(.bss) for can_lock_struct
    sms.o(i.SmsLock) refers to syspara.o(.bss) for sys_work_para_struct
    sms.o(i.SmsParaQuery) refers to _printf_percent.o(.ARM.Collect$$_printf_percent$$00000000) for _printf_percent
    sms.o(i.SmsParaQuery) refers to _printf_d.o(.ARM.Collect$$_printf_percent$$00000009) for _printf_d
    sms.o(i.SmsParaQuery) refers to _printf_dec.o(.text) for _printf_int_dec
    sms.o(i.SmsParaQuery) refers to _printf_pad.o(.text) for _printf_pre_padding
    sms.o(i.SmsParaQuery) refers to selfdef.o(i.StrLen) for StrLen
    sms.o(i.SmsParaQuery) refers to __2sprintf.o(.text) for __2sprintf
    sms.o(i.SmsParaQuery) refers to selfdef.o(i.MemCpy) for MemCpy
    sms.o(i.SmsParaQuery) refers to sim.o(i.SimTermIdToAsciiNum) for SimTermIdToAsciiNum
    sms.o(i.SmsParaQuery) refers to selfdef.o(i.IsValidNumOrCharOrDot) for IsValidNumOrCharOrDot
    sms.o(i.SmsParaQuery) refers to selfdef.o(i.IsValidAscii) for IsValidAscii
    sms.o(i.SmsParaQuery) refers to syspara.o(.bss) for sys_private_para_struct
    sms.o(i.SmsParaQuery) refers to syspara.o(.constdata) for sys_const_para_struct
    sms.o(i.SmsParaReInit) refers to syspara.o(i.SysBootParaWrite) for SysBootParaWrite
    sms.o(i.SmsParaReInit) refers to sms.o(i.SmsAckPacket) for SmsAckPacket
    sms.o(i.SmsParaReInit) refers to syspara.o(.bss) for sys_boot_para_struct
    sms.o(i.SmsParaSet) refers to selfdef.o(i.StrLen) for StrLen
    sms.o(i.SmsParaSet) refers to sms.o(i.SmsParaLen) for SmsParaLen
    sms.o(i.SmsParaSet) refers to syspara.o(i.SetSmsAlarmCenterNum) for SetSmsAlarmCenterNum
    sms.o(i.SmsParaSet) refers to sim.o(i.SimNumToTermId) for SimNumToTermId
    sms.o(i.SmsParaSet) refers to sim.o(i.SimSetSimNum) for SimSetSimNum
    sms.o(i.SmsParaSet) refers to selfdef.o(i.MemCpy) for MemCpy
    sms.o(i.SmsParaSet) refers to syspara.o(i.SysPrivateParaWrite) for SysPrivateParaWrite
    sms.o(i.SmsParaSet) refers to syspara.o(i.SetApn) for SetApn
    sms.o(i.SmsParaSet) refers to selfdef.o(i.IsValidNum) for IsValidNum
    sms.o(i.SmsParaSet) refers to syspara.o(i.SetMasterIp) for SetMasterIp
    sms.o(i.SmsParaSet) refers to syspara.o(i.SetSlaverIp) for SetSlaverIp
    sms.o(i.SmsParaSet) refers to syspara.o(i.SetPort) for SetPort
    sms.o(i.SmsParaSet) refers to sms.o(i.SmsAckPacket) for SmsAckPacket
    sms.o(i.SmsParaSet) refers to sms.o(.bss) for sms_struct
    sms.o(i.SmsParaSet) refers to syspara.o(.bss) for sys_private_para_struct
    sms.o(i.SmsProcessFun) refers to selfdef.o(i.SubMatch) for SubMatch
    sms.o(i.SmsProcessFun) refers to sms.o(i.SmsDecodePdu) for SmsDecodePdu
    sms.o(i.SmsProcessFun) refers to sms.o(i.SmsAnalysis) for SmsAnalysis
    sms.o(i.SmsProcessFun) refers to gprs.o(i.GprsDelay) for GprsDelay
    sms.o(i.SmsProcessFun) refers to selfdef.o(i.StrLen) for StrLen
    sms.o(i.SmsProcessFun) refers to gprs.o(i.GprsSendAtCmd) for GprsSendAtCmd
    sms.o(i.SmsProcessFun) refers to gprs.o(.bss) for gsm_misc_struct
    sms.o(i.SmsProgramUpgrade) refers to selfdef.o(i.StrLen) for StrLen
    sms.o(i.SmsProgramUpgrade) refers to ftp.o(i.FtpAddrAnalysis) for FtpAddrAnalysis
    sms.o(i.SmsProgramUpgrade) refers to sms.o(i.SmsAckPacket) for SmsAckPacket
    sms.o(i.SmsTextDecode) refers to selfdef.o(i.AsciiToHex) for AsciiToHex
    sms.o(i.SmsTextDecode) refers to sms.o(i.SmsDecode7bit) for SmsDecode7bit
    sms.o(i.SmsTextDecode) refers to sms.o(i.SmsDecodeUcs2) for SmsDecodeUcs2
    sms.o(i.SmsTextDecode) refers to sms.o(i.SmsDecode8bit) for SmsDecode8bit
    sms.o(i.SmsTextEncode) refers to sms.o(i.SmsEncode7bit) for SmsEncode7bit
    sms.o(i.SmsTextEncode) refers to sms.o(i.SmsEncodeUcs2) for SmsEncodeUcs2
    sms.o(i.SmsTextEncode) refers to sms.o(i.SmsEncode8bit) for SmsEncode8bit
    sms.o(i.SmsTextEncode) refers to selfdef.o(i.HexToAscii) for HexToAscii
    sms.o(i.SmsTx) refers to _printf_percent.o(.ARM.Collect$$_printf_percent$$00000000) for _printf_percent
    sms.o(i.SmsTx) refers to _printf_d.o(.ARM.Collect$$_printf_percent$$00000009) for _printf_d
    sms.o(i.SmsTx) refers to _printf_dec.o(.text) for _printf_int_dec
    sms.o(i.SmsTx) refers to selfdef.o(i.StrLen) for StrLen
    sms.o(i.SmsTx) refers to sms.o(i.SmsEncodePdu) for SmsEncodePdu
    sms.o(i.SmsTx) refers to __2sprintf.o(.text) for __2sprintf
    sms.o(i.SmsTx) refers to gprs.o(i.GprsSendAtCmd) for GprsSendAtCmd
    sms.o(i.SmsTx) refers to driver.o(i.GprsUartFixedLenSend) for GprsUartFixedLenSend
    sms.o(i.SmsTx) refers to selfdef.o(i.MemCpy) for MemCpy
    sms.o(i.SmsTx) refers to gprs.o(.bss) for gsm_misc_struct
    sms.o(i.SmsTx) refers to sms.o(.bss) for sms_struct
    sms.o(i.SmsTx) refers to syspara.o(.bss) for sys_private_para_struct
    sms.o(i.SmsUnlock) refers to can.o(i.CanDataInit) for CanDataInit
    sms.o(i.SmsUnlock) refers to fram.o(i.SpiFramWrite) for SpiFramWrite
    sms.o(i.SmsUnlock) refers to sms.o(i.SmsAckPacket) for SmsAckPacket
    sms.o(i.SmsUnlock) refers to syspara.o(.bss) for sys_work_para_struct
    can.o(i.CanDataInit) refers to selfdef.o(i.RamZero) for RamZero
    can.o(i.CanDataInit) refers to can.o(i.CanDataWrite) for CanDataWrite
    can.o(i.CanDataInit) refers to can.o(.bss) for can_lock_struct
    can.o(i.CanDataRead) refers to fram.o(i.SpiFramRead) for SpiFramRead
    can.o(i.CanDataRead) refers to selfdef.o(i.U8SumCheck) for U8SumCheck
    can.o(i.CanDataRead) refers to can.o(i.CanDataInit) for CanDataInit
    can.o(i.CanDataRead) refers to can.o(.bss) for can_lock_struct
    can.o(i.CanDataWrite) refers to selfdef.o(i.U8SumCheck) for U8SumCheck
    can.o(i.CanDataWrite) refers to fram.o(i.SpiFramWrite) for SpiFramWrite
    can.o(i.CanDataWrite) refers to can.o(.bss) for can_lock_struct
    can.o(i.CanDeInit) refers to stm32f10x_can.o(i.CAN_ITConfig) for CAN_ITConfig
    can.o(i.CanDeInit) refers to stm32f10x_can.o(i.CAN_DeInit) for CAN_DeInit
    can.o(i.CanDeInit) refers to stm32f10x_rcc.o(i.RCC_APB1PeriphClockCmd) for RCC_APB1PeriphClockCmd
    can.o(i.CanDeInit) refers to stm32f10x_gpio.o(i.GPIO_Init) for GPIO_Init
    can.o(i.CanFilterInit) refers to stm32f10x_can.o(i.CAN_FilterInit) for CAN_FilterInit
    can.o(i.CanInit) refers to stm32f10x_gpio.o(i.GPIO_Init) for GPIO_Init
    can.o(i.CanInit) refers to stm32f10x_rcc.o(i.RCC_APB1PeriphClockCmd) for RCC_APB1PeriphClockCmd
    can.o(i.CanInit) refers to stm32f10x_rcc.o(i.RCC_GetClocksFreq) for RCC_GetClocksFreq
    can.o(i.CanInit) refers to stm32f10x_can.o(i.CAN_DeInit) for CAN_DeInit
    can.o(i.CanInit) refers to stm32f10x_can.o(i.CAN_StructInit) for CAN_StructInit
    can.o(i.CanInit) refers to stm32f10x_can.o(i.CAN_Init) for CAN_Init
    can.o(i.CanInit) refers to can.o(i.CanFilterInit) for CanFilterInit
    can.o(i.CanInit) refers to stm32f10x_can.o(i.CAN_ITConfig) for CAN_ITConfig
    can.o(i.CanInit) refers to misc.o(i.NVIC_Init) for NVIC_Init
    can.o(i.CanInit) refers to can.o(i.CanDataRead) for CanDataRead
    can.o(i.CanMain) refers to stm32f10x_gpio.o(i.GPIO_ReadInputDataBit) for GPIO_ReadInputDataBit
    can.o(i.CanMain) refers to stm32f10x_gpio.o(i.GPIO_SetBits) for GPIO_SetBits
    can.o(i.CanMain) refers to can.o(i.CanInit) for CanInit
    can.o(i.CanMain) refers to can.o(i.CanProcess) for CanProcess
    can.o(i.CanMain) refers to can.o(i.CanDeInit) for CanDeInit
    can.o(i.CanMain) refers to stm32f10x_gpio.o(i.GPIO_ResetBits) for GPIO_ResetBits
    can.o(i.CanMain) refers to selfdef.o(i.RamZero) for RamZero
    can.o(i.CanMain) refers to can.o(.bss) for can_struct
    can.o(i.CanMain) refers to syspara.o(.bss) for sys_work_para_struct
    can.o(i.CanMonitor) refers to stm32f10x_gpio.o(i.GPIO_ReadInputDataBit) for GPIO_ReadInputDataBit
    can.o(i.CanMonitor) refers to can.o(i.CanTx) for CanTx
    can.o(i.CanMonitor) refers to protocol.o(i.ProUpAlarm) for ProUpAlarm
    can.o(i.CanMonitor) refers to selfdef.o(i.StrLen) for StrLen
    can.o(i.CanMonitor) refers to driver.o(i.LocalDebug) for LocalDebug
    can.o(i.CanMonitor) refers to stm32f10x_gpio.o(i.GPIO_ResetBits) for GPIO_ResetBits
    can.o(i.CanMonitor) refers to can.o(i.CanDeInit) for CanDeInit
    can.o(i.CanMonitor) refers to systask.o(i.SysDelay) for SysDelay
    can.o(i.CanMonitor) refers to can.o(i.CanInit) for CanInit
    can.o(i.CanMonitor) refers to stm32f10x_gpio.o(i.GPIO_SetBits) for GPIO_SetBits
    can.o(i.CanMonitor) refers to syspara.o(.bss) for sys_work_para_struct
    can.o(i.CanMonitor) refers to can.o(.bss) for can_struct
    can.o(i.CanMonitor) refers to can.o(.data) for s_sec_counter_2
    can.o(i.CanProcess) refers to protocol.o(i.ProUpControllerAck) for ProUpControllerAck
    can.o(i.CanProcess) refers to can.o(.bss) for can_struct
    can.o(i.CanRx) refers to stm32f10x_can.o(i.CAN_Receive) for CAN_Receive
    can.o(i.CanRx) refers to selfdef.o(i.MemCpy) for MemCpy
    can.o(i.CanRx) refers to can.o(.bss) for can_struct
    can.o(i.CanRx) refers to syspara.o(.bss) for sys_work_para_struct
    can.o(i.CanTx) refers to can.o(i.CanTxData) for CanTxData
    can.o(i.CanTx) refers to syspara.o(i.UnLockRecord) for UnLockRecord
    can.o(i.CanTx) refers to syspara.o(i.LockRecord) for LockRecord
    can.o(i.CanTx) refers to selfdef.o(i.MemCpy) for MemCpy
    can.o(i.CanTx) refers to selfdef.o(i.RamZero) for RamZero
    can.o(i.CanTx) refers to can.o(i.CanDataWrite) for CanDataWrite
    can.o(i.CanTx) refers to fram.o(i.SpiFramWrite) for SpiFramWrite
    can.o(i.CanTx) refers to syspara.o(.bss) for sys_private_para_struct
    can.o(i.CanTx) refers to can.o(.bss) for can_lock_struct
    can.o(i.CanTx) refers to can.o(.data) for center_tx_counter
    can.o(i.CanTxData) refers to selfdef.o(i.MemCpy) for MemCpy
    can.o(i.CanTxData) refers to stm32f10x_can.o(i.CAN_Transmit) for CAN_Transmit
    localcomm.o(i.LocalCommDelay) refers to driver.o(i.FeedWtd) for FeedWtd
    localcomm.o(i.LocalCommDelay) refers to driver.o(i.DriverMain) for DriverMain
    localcomm.o(i.LocalCommDelay) refers to gprs.o(i.GprsMain) for GprsMain
    localcomm.o(i.LocalCommDelay) refers to gps.o(i.GpsMain) for GpsMain
    localcomm.o(i.LocalCommDelay) refers to systask.o(i.SysTaskMain) for SysTaskMain
    localcomm.o(i.LocalCommDelay) refers to can.o(i.CanMain) for CanMain
    localcomm.o(i.LocalCommDelay) refers to syspara.o(.bss) for sys_misc_run_struct
    localcomm.o(i.LocalCommFtpState) refers to selfdef.o(i.Uint32ToU8) for Uint32ToU8
    localcomm.o(i.LocalCommFtpState) refers to localcomm.o(i.LocalCommTx) for LocalCommTx
    localcomm.o(i.LocalCommGetSysState) refers to gps.o(i.GetGpsInfo) for GetGpsInfo
    localcomm.o(i.LocalCommGetSysState) refers to selfdef.o(i.MemCpy) for MemCpy
    localcomm.o(i.LocalCommGetSysState) refers to syspara.o(.bss) for sys_work_para_struct
    localcomm.o(i.LocalCommGetSysState) refers to gprs.o(.bss) for gsm_misc_struct
    localcomm.o(i.LocalCommMain) refers to localcomm.o(i.LocalCommRx) for LocalCommRx
    localcomm.o(i.LocalCommRx) refers to driver.o(i.GetLocalUartRxData) for GetLocalUartRxData
    localcomm.o(i.LocalCommRx) refers to syspara.o(i.SysBootParaWrite) for SysBootParaWrite
    localcomm.o(i.LocalCommRx) refers to syspara.o(i.TermReset) for TermReset
    localcomm.o(i.LocalCommRx) refers to localcomm.o(i.ThagDebugRead) for ThagDebugRead
    localcomm.o(i.LocalCommRx) refers to selfdef.o(i.U8SumCheck) for U8SumCheck
    localcomm.o(i.LocalCommRx) refers to selfdef.o(i.U8ToUint32) for U8ToUint32
    localcomm.o(i.LocalCommRx) refers to syspara.o(i.QuerySysPrivatePara) for QuerySysPrivatePara
    localcomm.o(i.LocalCommRx) refers to syspara.o(i.SetSysPrivatePara) for SetSysPrivatePara
    localcomm.o(i.LocalCommRx) refers to localcomm.o(i.LocalCommGetSysState) for LocalCommGetSysState
    localcomm.o(i.LocalCommRx) refers to localcomm.o(i.LocalCommTx) for LocalCommTx
    localcomm.o(i.LocalCommRx) refers to localcomm.o(i.LocalCommDelay) for LocalCommDelay
    localcomm.o(i.LocalCommRx) refers to syspara.o(i.SysReset) for SysReset
    localcomm.o(i.LocalCommRx) refers to syspara.o(i.TermReset2) for TermReset2
    localcomm.o(i.LocalCommRx) refers to syspara.o(.bss) for sys_boot_para_struct
    localcomm.o(i.LocalCommTx) refers to selfdef.o(i.Uint32ToU8) for Uint32ToU8
    localcomm.o(i.LocalCommTx) refers to selfdef.o(i.U8SumCheck) for U8SumCheck
    localcomm.o(i.LocalCommTx) refers to driver.o(i.LocalUartFixedLenSend) for LocalUartFixedLenSend
    localcomm.o(i.ThagDebugRead) refers to selfdef.o(i.StrLen) for StrLen
    localcomm.o(i.ThagDebugRead) refers to selfdef.o(i.MemCpy) for MemCpy
    localcomm.o(i.ThagDebugRead) refers to driver.o(i.LocalUartFixedLenSend) for LocalUartFixedLenSend
    localcomm.o(i.ThagDebugRead) refers to syspara.o(.constdata) for sys_const_para_struct
    main.o(i.main) refers to driver.o(i.GpioInit) for GpioInit
    main.o(i.main) refers to stm32f10x_gpio.o(i.GPIO_SetBits) for GPIO_SetBits
    main.o(i.main) refers to driver.o(i.IwdgInit) for IwdgInit
    main.o(i.main) refers to driver.o(i.UsartInit) for UsartInit
    main.o(i.main) refers to driver.o(i.FeedWtd) for FeedWtd
    main.o(i.main) refers to selfdef.o(i.LongTimeDly) for LongTimeDly
    main.o(i.main) refers to selfdef.o(i.StrLen) for StrLen
    main.o(i.main) refers to driver.o(i.LocalUartFixedLenSend) for LocalUartFixedLenSend
    main.o(i.main) refers to fram.o(i.SpiFramInit) for SpiFramInit
    main.o(i.main) refers to syspara.o(i.SysParaRead) for SysParaRead
    main.o(i.main) refers to driver.o(i.SysTickInit) for SysTickInit
    main.o(i.main) refers to driver.o(i.RtcInit) for RtcInit
    main.o(i.main) refers to stm32f10x_exti.o(i.EXTI_DeInit) for EXTI_DeInit
    main.o(i.main) refers to driver.o(i.ExitInit) for ExitInit
    main.o(i.main) refers to syspara.o(i.SysVaryInit) for SysVaryInit
    main.o(i.main) refers to driver.o(i.AdcInit) for AdcInit
    main.o(i.main) refers to driver.o(i.DmaInit) for DmaInit
    main.o(i.main) refers to driver.o(i.PvdInit) for PvdInit
    main.o(i.main) refers to gprs.o(i.GprsMain) for GprsMain
    main.o(i.main) refers to driver.o(i.DriverMain) for DriverMain
    main.o(i.main) refers to gps.o(i.GpsMain) for GpsMain
    main.o(i.main) refers to systask.o(i.SysTaskMain) for SysTaskMain
    main.o(i.main) refers to localcomm.o(i.LocalCommMain) for LocalCommMain
    main.o(i.main) refers to can.o(i.CanMain) for CanMain
    __2sprintf.o(.text) refers to _printf_char_common.o(.text) for _printf_char_common
    __2sprintf.o(.text) refers to _sputc.o(.text) for _sputc
    noretval__2sprintf.o(.text) refers to _printf_char_common.o(.text) for _printf_char_common
    noretval__2sprintf.o(.text) refers to _sputc.o(.text) for _sputc
    __printf.o(.text) refers to _printf_percent.o(.ARM.Collect$$_printf_percent$$00000000) for _printf_percent
    _printf_str.o(.text) refers (Special) to _printf_char.o(.text) for _printf_cs_common
    _printf_str.o(.text) refers (Weak) to _printf_pad.o(.text) for _printf_pre_padding
    _printf_str.o(.text) refers (Weak) to _printf_pad.o(.text) for _printf_post_padding
    _printf_dec.o(.text) refers to _printf_intcommon.o(.text) for _printf_int_common
    _printf_longlong_dec.o(.text) refers to lludiv10.o(.text) for _ll_udiv10
    _printf_longlong_dec.o(.text) refers to _printf_intcommon.o(.text) for _printf_int_common
    _printf_hex_ll.o(.text) refers to _printf_intcommon.o(.text) for _printf_int_common
    _printf_hex_ll.o(.text) refers to _printf_hex_ll.o(.constdata) for .constdata
    _printf_hex_int.o(.text) refers to _printf_intcommon.o(.text) for _printf_int_common
    _printf_hex_int.o(.text) refers to _printf_hex_int.o(.constdata) for .constdata
    _printf_hex_int_ll.o(.text) refers to _printf_intcommon.o(.text) for _printf_int_common
    _printf_hex_int_ll.o(.text) refers to _printf_hex_int_ll.o(.constdata) for .constdata
    _printf_hex_ptr.o(.text) refers to _printf_intcommon.o(.text) for _printf_int_common
    _printf_hex_ptr.o(.text) refers to _printf_hex_ptr.o(.constdata) for .constdata
    _printf_hex_int_ptr.o(.text) refers to _printf_intcommon.o(.text) for _printf_int_common
    _printf_hex_int_ptr.o(.text) refers to _printf_hex_int_ptr.o(.constdata) for .constdata
    _printf_hex_ll_ptr.o(.text) refers to _printf_intcommon.o(.text) for _printf_int_common
    _printf_hex_ll_ptr.o(.text) refers to _printf_hex_ll_ptr.o(.constdata) for .constdata
    _printf_hex_int_ll_ptr.o(.text) refers to _printf_intcommon.o(.text) for _printf_int_common
    _printf_hex_int_ll_ptr.o(.text) refers to _printf_hex_int_ll_ptr.o(.constdata) for .constdata
    __printf_flags.o(.text) refers to _printf_percent.o(.ARM.Collect$$_printf_percent$$00000000) for _printf_percent
    __printf_flags.o(.text) refers to __printf_flags.o(.constdata) for .constdata
    __printf_ss.o(.text) refers to _printf_percent.o(.ARM.Collect$$_printf_percent$$00000000) for _printf_percent
    __printf_flags_ss.o(.text) refers to _printf_percent.o(.ARM.Collect$$_printf_percent$$00000000) for _printf_percent
    __printf_flags_ss.o(.text) refers to __printf_flags_ss.o(.constdata) for .constdata
    __printf_wp.o(.text) refers to __printf_wp.o(i._is_digit) for _is_digit
    __printf_wp.o(.text) refers to _printf_percent.o(.ARM.Collect$$_printf_percent$$00000000) for _printf_percent
    __printf_flags_wp.o(.text) refers to __printf_wp.o(i._is_digit) for _is_digit
    __printf_flags_wp.o(.text) refers to _printf_percent.o(.ARM.Collect$$_printf_percent$$00000000) for _printf_percent
    __printf_flags_wp.o(.text) refers to __printf_flags_wp.o(.constdata) for .constdata
    __printf_ss_wp.o(.text) refers to __printf_wp.o(i._is_digit) for _is_digit
    __printf_ss_wp.o(.text) refers to _printf_percent.o(.ARM.Collect$$_printf_percent$$00000000) for _printf_percent
    __printf_flags_ss_wp.o(.text) refers to __printf_wp.o(i._is_digit) for _is_digit
    __printf_flags_ss_wp.o(.text) refers to _printf_percent.o(.ARM.Collect$$_printf_percent$$00000000) for _printf_percent
    __printf_flags_ss_wp.o(.text) refers to __printf_flags_ss_wp.o(.constdata) for .constdata
    _printf_c.o(.ARM.Collect$$_printf_percent$$00000013) refers (Weak) to _printf_char.o(.text) for _printf_char
    _printf_s.o(.ARM.Collect$$_printf_percent$$00000014) refers (Weak) to _printf_char.o(.text) for _printf_string
    _printf_x.o(.ARM.Collect$$_printf_percent$$0000000C) refers (Weak) to _printf_hex_int.o(.text) for _printf_int_hex
    _printf_d.o(.ARM.Collect$$_printf_percent$$00000009) refers (Weak) to _printf_dec.o(.text) for _printf_int_dec
    _printf_u.o(.ARM.Collect$$_printf_percent$$0000000A) refers (Weak) to _printf_dec.o(.text) for _printf_int_dec
    _printf_percent.o(.ARM.Collect$$_printf_percent$$00000000) refers (Special) to _printf_percent_end.o(.ARM.Collect$$_printf_percent$$00000017) for _printf_percent_end
    _printf_llu.o(.ARM.Collect$$_printf_percent$$0000000F) refers (Special) to _printf_ll.o(.ARM.Collect$$_printf_percent$$00000007) for _printf_ll
    _printf_llu.o(.ARM.Collect$$_printf_percent$$0000000F) refers (Weak) to _printf_longlong_dec.o(.text) for _printf_longlong_dec
    rt_memcpy_v6.o(.text) refers to rt_memcpy_w.o(.text) for __aeabi_memcpy4
    localtime.o(.text) refers to localtime_internal.o(.text) for _localtime_r
    localtime.o(.text) refers to localtime.o(.bss) for .bss
    mktime.o(.text) refers to _monlen.o(.constdata) for _monlen
    __main.o(!!!main) refers to rtentry.o(.ARM.Collect$$rtentry$$00000000) for __rt_entry
    rtentry.o(.ARM.Collect$$rtentry$$00000000) refers (Special) to rtentry2.o(.ARM.Collect$$rtentry$$0000000A) for __rt_entry_li
    rtentry.o(.ARM.Collect$$rtentry$$00000000) refers (Special) to rtentry2.o(.ARM.Collect$$rtentry$$0000000D) for __rt_entry_main
    rtentry.o(.ARM.Collect$$rtentry$$00000000) refers (Special) to rtentry2.o(.ARM.Collect$$rtentry$$0000000C) for __rt_entry_postli_1
    rtentry.o(.ARM.Collect$$rtentry$$00000000) refers (Special) to rtentry2.o(.ARM.Collect$$rtentry$$00000009) for __rt_entry_postsh_1
    rtentry.o(.ARM.Collect$$rtentry$$00000000) refers (Special) to rtentry2.o(.ARM.Collect$$rtentry$$00000002) for __rt_entry_presh_1
    rtentry.o(.ARM.Collect$$rtentry$$00000000) refers (Special) to rtentry4.o(.ARM.Collect$$rtentry$$00000004) for __rt_entry_sh
    _printf_intcommon.o(.text) refers (Weak) to _printf_pad.o(.text) for _printf_pre_padding
    _printf_intcommon.o(.text) refers (Weak) to _printf_pad.o(.text) for _printf_pre_padding
    _printf_intcommon.o(.text) refers (Weak) to _printf_pad.o(.text) for _printf_post_padding
    _printf_char_common.o(.text) refers to __printf_flags_ss_wp.o(.text) for __printf
    _printf_char.o(.text) refers (Weak) to _printf_str.o(.text) for _printf_str
    localtime_internal.o(.text) refers to rt_memclr_w.o(.text) for __aeabi_memclr4
    localtime_internal.o(.text) refers to _monlen.o(.constdata) for _monlen
    rtentry2.o(.ARM.Collect$$rtentry$$00000008) refers to boardinit2.o(.text) for _platform_post_stackheap_init
    rtentry2.o(.ARM.Collect$$rtentry$$0000000A) refers to libinit.o(.ARM.Collect$$libinit$$00000000) for __rt_lib_init
    rtentry2.o(.ARM.Collect$$rtentry$$0000000B) refers to boardinit3.o(.text) for _platform_post_lib_init
    rtentry2.o(.ARM.Collect$$rtentry$$0000000D) refers to main.o(i.main) for main
    rtentry2.o(.ARM.Collect$$rtentry$$0000000D) refers to exit.o(.text) for exit
    rtentry2.o(.ARM.exidx) refers to rtentry2.o(.ARM.Collect$$rtentry$$00000001) for .ARM.Collect$$rtentry$$00000001
    rtentry2.o(.ARM.exidx) refers to rtentry2.o(.ARM.Collect$$rtentry$$00000008) for .ARM.Collect$$rtentry$$00000008
    rtentry2.o(.ARM.exidx) refers to rtentry2.o(.ARM.Collect$$rtentry$$0000000A) for .ARM.Collect$$rtentry$$0000000A
    rtentry2.o(.ARM.exidx) refers to rtentry2.o(.ARM.Collect$$rtentry$$0000000B) for .ARM.Collect$$rtentry$$0000000B
    rtentry2.o(.ARM.exidx) refers to rtentry2.o(.ARM.Collect$$rtentry$$0000000D) for .ARM.Collect$$rtentry$$0000000D
    rtentry4.o(.ARM.Collect$$rtentry$$00000004) refers to sys_stackheap_outer.o(.text) for __user_setup_stackheap
    rtentry4.o(.ARM.exidx) refers to rtentry4.o(.ARM.Collect$$rtentry$$00000004) for .ARM.Collect$$rtentry$$00000004
    sys_stackheap_outer.o(.text) refers to libspace.o(.text) for __user_perproc_libspace
    sys_stackheap_outer.o(.text) refers to startup_stm32f10x_hd.o(.text) for __user_initial_stackheap
    exit.o(.text) refers to rtexit.o(.ARM.Collect$$rtexit$$00000000) for __rt_exit
    libinit.o(.ARM.Collect$$libinit$$00000000) refers (Special) to libinit2.o(.ARM.Collect$$libinit$$0000002C) for __rt_lib_init_alloca_1
    libinit.o(.ARM.Collect$$libinit$$00000000) refers (Special) to libinit2.o(.ARM.Collect$$libinit$$0000002A) for __rt_lib_init_argv_1
    libinit.o(.ARM.Collect$$libinit$$00000000) refers (Special) to libinit2.o(.ARM.Collect$$libinit$$00000019) for __rt_lib_init_atexit_1
    libinit.o(.ARM.Collect$$libinit$$00000000) refers (Special) to libinit2.o(.ARM.Collect$$libinit$$0000001F) for __rt_lib_init_clock_1
    libinit.o(.ARM.Collect$$libinit$$00000000) refers (Special) to libinit2.o(.ARM.Collect$$libinit$$00000030) for __rt_lib_init_cpp_1
    libinit.o(.ARM.Collect$$libinit$$00000000) refers (Special) to libinit2.o(.ARM.Collect$$libinit$$0000002E) for __rt_lib_init_exceptions_1
    libinit.o(.ARM.Collect$$libinit$$00000000) refers (Special) to libinit2.o(.ARM.Collect$$libinit$$00000002) for __rt_lib_init_fp_1
    libinit.o(.ARM.Collect$$libinit$$00000000) refers (Special) to libinit2.o(.ARM.Collect$$libinit$$0000001D) for __rt_lib_init_fp_trap_1
    libinit.o(.ARM.Collect$$libinit$$00000000) refers (Special) to libinit2.o(.ARM.Collect$$libinit$$00000021) for __rt_lib_init_getenv_1
    libinit.o(.ARM.Collect$$libinit$$00000000) refers (Special) to libinit2.o(.ARM.Collect$$libinit$$00000008) for __rt_lib_init_heap_1
    libinit.o(.ARM.Collect$$libinit$$00000000) refers (Special) to libinit2.o(.ARM.Collect$$libinit$$0000000F) for __rt_lib_init_lc_collate_1
    libinit.o(.ARM.Collect$$libinit$$00000000) refers (Special) to libinit2.o(.ARM.Collect$$libinit$$00000011) for __rt_lib_init_lc_ctype_1
    libinit.o(.ARM.Collect$$libinit$$00000000) refers (Special) to libinit2.o(.ARM.Collect$$libinit$$00000013) for __rt_lib_init_lc_monetary_1
    libinit.o(.ARM.Collect$$libinit$$00000000) refers (Special) to libinit2.o(.ARM.Collect$$libinit$$00000015) for __rt_lib_init_lc_numeric_1
    libinit.o(.ARM.Collect$$libinit$$00000000) refers (Special) to libinit2.o(.ARM.Collect$$libinit$$00000017) for __rt_lib_init_lc_time_1
    libinit.o(.ARM.Collect$$libinit$$00000000) refers (Special) to libinit2.o(.ARM.Collect$$libinit$$0000000C) for __rt_lib_init_rand_1
    libinit.o(.ARM.Collect$$libinit$$00000000) refers (Special) to libinit2.o(.ARM.Collect$$libinit$$00000031) for __rt_lib_init_return
    libinit.o(.ARM.Collect$$libinit$$00000000) refers (Special) to libinit2.o(.ARM.Collect$$libinit$$0000001B) for __rt_lib_init_signal_1
    libinit.o(.ARM.Collect$$libinit$$00000000) refers (Special) to libinit2.o(.ARM.Collect$$libinit$$00000023) for __rt_lib_init_stdio_1
    libinit.o(.ARM.Collect$$libinit$$00000000) refers (Special) to libinit2.o(.ARM.Collect$$libinit$$0000000A) for __rt_lib_init_user_alloc_1
    libspace.o(.text) refers to libspace.o(.bss) for __libspace_start
    rtexit.o(.ARM.Collect$$rtexit$$00000000) refers (Special) to rtexit2.o(.ARM.Collect$$rtexit$$00000004) for __rt_exit_exit
    rtexit.o(.ARM.Collect$$rtexit$$00000000) refers (Special) to rtexit2.o(.ARM.Collect$$rtexit$$00000003) for __rt_exit_ls
    rtexit.o(.ARM.Collect$$rtexit$$00000000) refers (Special) to rtexit2.o(.ARM.Collect$$rtexit$$00000002) for __rt_exit_prels_1
    rtexit.o(.ARM.exidx) refers (Special) to rtexit2.o(.ARM.Collect$$rtexit$$00000004) for __rt_exit_exit
    rtexit.o(.ARM.exidx) refers (Special) to rtexit2.o(.ARM.Collect$$rtexit$$00000003) for __rt_exit_ls
    rtexit.o(.ARM.exidx) refers (Special) to rtexit2.o(.ARM.Collect$$rtexit$$00000002) for __rt_exit_prels_1
    rtexit.o(.ARM.exidx) refers to rtexit.o(.ARM.Collect$$rtexit$$00000000) for .ARM.Collect$$rtexit$$00000000
    libinit2.o(.ARM.Collect$$libinit$$0000000E) refers to libinit2.o(.ARM.Collect$$libinit$$0000000D) for .ARM.Collect$$libinit$$0000000D
    libinit2.o(.ARM.Collect$$libinit$$00000010) refers to libinit2.o(.ARM.Collect$$libinit$$0000000D) for .ARM.Collect$$libinit$$0000000D
    libinit2.o(.ARM.Collect$$libinit$$00000012) refers to libinit2.o(.ARM.Collect$$libinit$$0000000D) for .ARM.Collect$$libinit$$0000000D
    libinit2.o(.ARM.Collect$$libinit$$00000014) refers to libinit2.o(.ARM.Collect$$libinit$$0000000D) for .ARM.Collect$$libinit$$0000000D
    libinit2.o(.ARM.Collect$$libinit$$00000016) refers to libinit2.o(.ARM.Collect$$libinit$$0000000D) for .ARM.Collect$$libinit$$0000000D
    libinit2.o(.ARM.Collect$$libinit$$00000024) refers to argv_veneer.o(.emb_text) for __ARM_argv_veneer
    libinit2.o(.ARM.Collect$$libinit$$00000025) refers to argv_veneer.o(.emb_text) for __ARM_argv_veneer
    rtexit2.o(.ARM.Collect$$rtexit$$00000003) refers to libshutdown.o(.ARM.Collect$$libshutdown$$00000000) for __rt_lib_shutdown
    rtexit2.o(.ARM.Collect$$rtexit$$00000004) refers to sys_exit.o(.text) for _sys_exit
    rtexit2.o(.ARM.exidx) refers to rtexit2.o(.ARM.Collect$$rtexit$$00000001) for .ARM.Collect$$rtexit$$00000001
    rtexit2.o(.ARM.exidx) refers to rtexit2.o(.ARM.Collect$$rtexit$$00000003) for .ARM.Collect$$rtexit$$00000003
    rtexit2.o(.ARM.exidx) refers to rtexit2.o(.ARM.Collect$$rtexit$$00000004) for .ARM.Collect$$rtexit$$00000004
    argv_veneer.o(.emb_text) refers to no_argv.o(.text) for __ARM_get_argv
    sys_exit.o(.text) refers (Special) to use_no_semi.o(.text) for __I$use$semihosting
    sys_exit.o(.text) refers (Special) to indicate_semi.o(.text) for __semihosting_library_function
    _get_argv_nomalloc.o(.text) refers (Special) to hrguard.o(.text) for __heap_region$guard
    _get_argv_nomalloc.o(.text) refers to defsig_rtmem_outer.o(.text) for __rt_SIGRTMEM
    _get_argv_nomalloc.o(.text) refers to sys_command.o(.text) for _sys_command_string
    libshutdown.o(.ARM.Collect$$libshutdown$$00000000) refers (Special) to libshutdown2.o(.ARM.Collect$$libshutdown$$00000006) for __rt_lib_shutdown_fp_trap_1
    libshutdown.o(.ARM.Collect$$libshutdown$$00000000) refers (Special) to libshutdown2.o(.ARM.Collect$$libshutdown$$0000000E) for __rt_lib_shutdown_heap_1
    libshutdown.o(.ARM.Collect$$libshutdown$$00000000) refers (Special) to libshutdown2.o(.ARM.Collect$$libshutdown$$0000000F) for __rt_lib_shutdown_return
    libshutdown.o(.ARM.Collect$$libshutdown$$00000000) refers (Special) to libshutdown2.o(.ARM.Collect$$libshutdown$$00000009) for __rt_lib_shutdown_signal_1
    libshutdown.o(.ARM.Collect$$libshutdown$$00000000) refers (Special) to libshutdown2.o(.ARM.Collect$$libshutdown$$00000003) for __rt_lib_shutdown_stdio_1
    libshutdown.o(.ARM.Collect$$libshutdown$$00000000) refers (Special) to libshutdown2.o(.ARM.Collect$$libshutdown$$0000000B) for __rt_lib_shutdown_user_alloc_1
    sys_command.o(.text) refers (Special) to use_no_semi.o(.text) for __I$use$semihosting
    sys_command.o(.text) refers (Special) to indicate_semi.o(.text) for __semihosting_library_function
    defsig_rtmem_outer.o(.text) refers to defsig_rtmem_inner.o(.text) for __rt_SIGRTMEM_inner
    defsig_rtmem_outer.o(.text) refers to defsig_exit.o(.text) for __sig_exit
    defsig_rtmem_formal.o(.text) refers to rt_raise.o(.text) for __rt_raise
    rt_raise.o(.text) refers to __raise.o(.text) for __raise
    rt_raise.o(.text) refers to sys_exit.o(.text) for _sys_exit
    defsig_exit.o(.text) refers to sys_exit.o(.text) for _sys_exit
    defsig_rtmem_inner.o(.text) refers to defsig_general.o(.text) for __default_signal_display
    __raise.o(.text) refers to defsig.o(CL$$defsig) for __default_signal_handler
    defsig_general.o(.text) refers to sys_wrch.o(.text) for _ttywrch
    sys_wrch.o(.text) refers (Special) to use_no_semi.o(.text) for __I$use$semihosting
    sys_wrch.o(.text) refers (Special) to indicate_semi.o(.text) for __semihosting_library_function
    defsig.o(CL$$defsig) refers to defsig_rtmem_inner.o(.text) for __rt_SIGRTMEM_inner
    defsig_abrt_inner.o(.text) refers to defsig_general.o(.text) for __default_signal_display
    defsig_fpe_inner.o(.text) refers to defsig_general.o(.text) for __default_signal_display
    defsig_rtred_inner.o(.text) refers to defsig_general.o(.text) for __default_signal_display
    defsig_stak_inner.o(.text) refers to defsig_general.o(.text) for __default_signal_display
    defsig_pvfn_inner.o(.text) refers to defsig_general.o(.text) for __default_signal_display
    defsig_cppl_inner.o(.text) refers to defsig_general.o(.text) for __default_signal_display
    defsig_segv_inner.o(.text) refers to defsig_general.o(.text) for __default_signal_display
    defsig_other.o(.text) refers to defsig_general.o(.text) for __default_signal_display


==============================================================================

Removing Unused input sections from the image.

    Removing core_cm3.o(.emb_text), (32 bytes).
    Removing system_stm32f10x.o(i.SystemCoreClockUpdate), (164 bytes).
    Removing system_stm32f10x.o(.data), (20 bytes).
    Removing stm32f10x_gpio.o(i.GPIO_AFIODeInit), (20 bytes).
    Removing stm32f10x_gpio.o(i.GPIO_DeInit), (200 bytes).
    Removing stm32f10x_gpio.o(i.GPIO_ETH_MediaInterfaceConfig), (12 bytes).
    Removing stm32f10x_gpio.o(i.GPIO_EXTILineConfig), (64 bytes).
    Removing stm32f10x_gpio.o(i.GPIO_EventOutputCmd), (12 bytes).
    Removing stm32f10x_gpio.o(i.GPIO_EventOutputConfig), (32 bytes).
    Removing stm32f10x_gpio.o(i.GPIO_PinLockConfig), (18 bytes).
    Removing stm32f10x_gpio.o(i.GPIO_PinRemapConfig), (144 bytes).
    Removing stm32f10x_gpio.o(i.GPIO_ReadInputData), (8 bytes).
    Removing stm32f10x_gpio.o(i.GPIO_ReadOutputData), (8 bytes).
    Removing stm32f10x_gpio.o(i.GPIO_ReadOutputDataBit), (18 bytes).
    Removing stm32f10x_gpio.o(i.GPIO_StructInit), (16 bytes).
    Removing stm32f10x_gpio.o(i.GPIO_Write), (4 bytes).
    Removing stm32f10x_gpio.o(i.GPIO_WriteBit), (10 bytes).
    Removing stm32f10x_rcc.o(i.RCC_ADCCLKConfig), (24 bytes).
    Removing stm32f10x_rcc.o(i.RCC_AdjustHSICalibrationValue), (24 bytes).
    Removing stm32f10x_rcc.o(i.RCC_ClearFlag), (20 bytes).
    Removing stm32f10x_rcc.o(i.RCC_ClearITPendingBit), (12 bytes).
    Removing stm32f10x_rcc.o(i.RCC_ClockSecuritySystemCmd), (12 bytes).
    Removing stm32f10x_rcc.o(i.RCC_DeInit), (76 bytes).
    Removing stm32f10x_rcc.o(i.RCC_GetITStatus), (24 bytes).
    Removing stm32f10x_rcc.o(i.RCC_HCLKConfig), (24 bytes).
    Removing stm32f10x_rcc.o(i.RCC_HSICmd), (12 bytes).
    Removing stm32f10x_rcc.o(i.RCC_ITConfig), (32 bytes).
    Removing stm32f10x_rcc.o(i.RCC_LSICmd), (12 bytes).
    Removing stm32f10x_rcc.o(i.RCC_MCOConfig), (12 bytes).
    Removing stm32f10x_rcc.o(i.RCC_PCLK1Config), (24 bytes).
    Removing stm32f10x_rcc.o(i.RCC_PCLK2Config), (24 bytes).
    Removing stm32f10x_rcc.o(i.RCC_PLLConfig), (28 bytes).
    Removing stm32f10x_rcc.o(i.RCC_USBCLKConfig), (12 bytes).
    Removing stm32f10x_usart.o(i.USART_ClearFlag), (18 bytes).
    Removing stm32f10x_usart.o(i.USART_ClearITPendingBit), (30 bytes).
    Removing stm32f10x_usart.o(i.USART_ClockInit), (34 bytes).
    Removing stm32f10x_usart.o(i.USART_ClockStructInit), (12 bytes).
    Removing stm32f10x_usart.o(i.USART_DMACmd), (18 bytes).
    Removing stm32f10x_usart.o(i.USART_HalfDuplexCmd), (24 bytes).
    Removing stm32f10x_usart.o(i.USART_IrDACmd), (24 bytes).
    Removing stm32f10x_usart.o(i.USART_IrDAConfig), (18 bytes).
    Removing stm32f10x_usart.o(i.USART_LINBreakDetectLengthConfig), (18 bytes).
    Removing stm32f10x_usart.o(i.USART_LINCmd), (24 bytes).
    Removing stm32f10x_usart.o(i.USART_OneBitMethodCmd), (24 bytes).
    Removing stm32f10x_usart.o(i.USART_OverSampling8Cmd), (22 bytes).
    Removing stm32f10x_usart.o(i.USART_ReceiverWakeUpCmd), (24 bytes).
    Removing stm32f10x_usart.o(i.USART_SendBreak), (10 bytes).
    Removing stm32f10x_usart.o(i.USART_SetAddress), (18 bytes).
    Removing stm32f10x_usart.o(i.USART_SetGuardTime), (16 bytes).
    Removing stm32f10x_usart.o(i.USART_SetPrescaler), (16 bytes).
    Removing stm32f10x_usart.o(i.USART_SmartCardCmd), (24 bytes).
    Removing stm32f10x_usart.o(i.USART_SmartCardNACKCmd), (24 bytes).
    Removing stm32f10x_usart.o(i.USART_StructInit), (24 bytes).
    Removing stm32f10x_usart.o(i.USART_WakeUpConfig), (18 bytes).
    Removing misc.o(i.NVIC_PriorityGroupConfig), (20 bytes).
    Removing misc.o(i.NVIC_SetVectorTable), (20 bytes).
    Removing misc.o(i.NVIC_SystemLPConfig), (32 bytes).
    Removing misc.o(i.SysTick_CLKSourceConfig), (40 bytes).
    Removing stm32f10x_rtc.o(i.RTC_ClearFlag), (16 bytes).
    Removing stm32f10x_rtc.o(i.RTC_GetDivider), (24 bytes).
    Removing stm32f10x_rtc.o(i.RTC_GetFlagStatus), (24 bytes).
    Removing stm32f10x_bkp.o(i.BKP_ClearFlag), (20 bytes).
    Removing stm32f10x_bkp.o(i.BKP_ClearITPendingBit), (20 bytes).
    Removing stm32f10x_bkp.o(i.BKP_GetFlagStatus), (12 bytes).
    Removing stm32f10x_bkp.o(i.BKP_GetITStatus), (12 bytes).
    Removing stm32f10x_bkp.o(i.BKP_ITConfig), (12 bytes).
    Removing stm32f10x_bkp.o(i.BKP_RTCOutputConfig), (28 bytes).
    Removing stm32f10x_bkp.o(i.BKP_ReadBackupRegister), (28 bytes).
    Removing stm32f10x_bkp.o(i.BKP_SetRTCCalibrationValue), (28 bytes).
    Removing stm32f10x_bkp.o(i.BKP_TamperPinCmd), (12 bytes).
    Removing stm32f10x_bkp.o(i.BKP_TamperPinLevelConfig), (12 bytes).
    Removing stm32f10x_bkp.o(i.BKP_WriteBackupRegister), (28 bytes).
    Removing stm32f10x_pwr.o(i.PWR_ClearFlag), (20 bytes).
    Removing stm32f10x_pwr.o(i.PWR_DeInit), (22 bytes).
    Removing stm32f10x_pwr.o(i.PWR_EnterSTANDBYMode), (52 bytes).
    Removing stm32f10x_pwr.o(i.PWR_WakeUpPinCmd), (12 bytes).
    Removing stm32f10x_pwr.o(i.SavePowerMode), (92 bytes).
    Removing stm32f10x_spi.o(i.I2S_Cmd), (24 bytes).
    Removing stm32f10x_spi.o(i.I2S_Init), (232 bytes).
    Removing stm32f10x_spi.o(i.I2S_StructInit), (20 bytes).
    Removing stm32f10x_spi.o(i.SPI_BiDirectionalLineConfig), (28 bytes).
    Removing stm32f10x_spi.o(i.SPI_CalculateCRC), (24 bytes).
    Removing stm32f10x_spi.o(i.SPI_DataSizeConfig), (18 bytes).
    Removing stm32f10x_spi.o(i.SPI_GetCRC), (16 bytes).
    Removing stm32f10x_spi.o(i.SPI_GetCRCPolynomial), (6 bytes).
    Removing stm32f10x_spi.o(i.SPI_I2S_ClearFlag), (6 bytes).
    Removing stm32f10x_spi.o(i.SPI_I2S_ClearITPendingBit), (20 bytes).
    Removing stm32f10x_spi.o(i.SPI_I2S_DMACmd), (18 bytes).
    Removing stm32f10x_spi.o(i.SPI_I2S_DeInit), (88 bytes).
    Removing stm32f10x_spi.o(i.SPI_I2S_GetITStatus), (52 bytes).
    Removing stm32f10x_spi.o(i.SPI_I2S_ITConfig), (32 bytes).
    Removing stm32f10x_spi.o(i.SPI_NSSInternalSoftwareConfig), (30 bytes).
    Removing stm32f10x_spi.o(i.SPI_SSOutputCmd), (24 bytes).
    Removing stm32f10x_spi.o(i.SPI_StructInit), (24 bytes).
    Removing stm32f10x_spi.o(i.SPI_TransmitCRC), (10 bytes).
    Removing stm32f10x_flash.o(i.FLASH_ClearFlag), (12 bytes).
    Removing stm32f10x_flash.o(i.FLASH_EnableWriteProtection), (196 bytes).
    Removing stm32f10x_flash.o(i.FLASH_EraseAllBank1Pages), (72 bytes).
    Removing stm32f10x_flash.o(i.FLASH_EraseAllPages), (72 bytes).
    Removing stm32f10x_flash.o(i.FLASH_EraseOptionBytes), (168 bytes).
    Removing stm32f10x_flash.o(i.FLASH_GetFlagStatus), (48 bytes).
    Removing stm32f10x_flash.o(i.FLASH_GetPrefetchBufferStatus), (24 bytes).
    Removing stm32f10x_flash.o(i.FLASH_GetReadOutProtectionStatus), (24 bytes).
    Removing stm32f10x_flash.o(i.FLASH_GetStatus), (52 bytes).
    Removing stm32f10x_flash.o(i.FLASH_GetUserOptionByte), (12 bytes).
    Removing stm32f10x_flash.o(i.FLASH_GetWriteProtectionOptionByte), (12 bytes).
    Removing stm32f10x_flash.o(i.FLASH_HalfCycleAccessCmd), (28 bytes).
    Removing stm32f10x_flash.o(i.FLASH_ITConfig), (32 bytes).
    Removing stm32f10x_flash.o(i.FLASH_LockBank1), (20 bytes).
    Removing stm32f10x_flash.o(i.FLASH_PrefetchBufferCmd), (28 bytes).
    Removing stm32f10x_flash.o(i.FLASH_ProgramHalfWord), (64 bytes).
    Removing stm32f10x_flash.o(i.FLASH_ProgramOptionByteData), (84 bytes).
    Removing stm32f10x_flash.o(i.FLASH_ReadOutProtection), (172 bytes).
    Removing stm32f10x_flash.o(i.FLASH_SetLatency), (24 bytes).
    Removing stm32f10x_flash.o(i.FLASH_UnlockBank1), (24 bytes).
    Removing stm32f10x_flash.o(i.FLASH_UserOptionByteConfig), (104 bytes).
    Removing stm32f10x_flash.o(i.FLASH_WaitForLastBank1Operation), (38 bytes).
    Removing stm32f10x_dma.o(i.DMA_ClearFlag), (28 bytes).
    Removing stm32f10x_dma.o(i.DMA_GetCurrDataCounter), (8 bytes).
    Removing stm32f10x_dma.o(i.DMA_GetITStatus), (44 bytes).
    Removing stm32f10x_dma.o(i.DMA_SetCurrDataCounter), (4 bytes).
    Removing stm32f10x_dma.o(i.DMA_StructInit), (26 bytes).
    Removing stm32f10x_adc.o(i.ADC_AnalogWatchdogCmd), (20 bytes).
    Removing stm32f10x_adc.o(i.ADC_AnalogWatchdogSingleChannelConfig), (16 bytes).
    Removing stm32f10x_adc.o(i.ADC_AnalogWatchdogThresholdsConfig), (6 bytes).
    Removing stm32f10x_adc.o(i.ADC_AutoInjectedConvCmd), (22 bytes).
    Removing stm32f10x_adc.o(i.ADC_ClearFlag), (6 bytes).
    Removing stm32f10x_adc.o(i.ADC_ClearITPendingBit), (10 bytes).
    Removing stm32f10x_adc.o(i.ADC_DeInit), (92 bytes).
    Removing stm32f10x_adc.o(i.ADC_DiscModeChannelCountConfig), (24 bytes).
    Removing stm32f10x_adc.o(i.ADC_DiscModeCmd), (22 bytes).
    Removing stm32f10x_adc.o(i.ADC_ExternalTrigConvCmd), (22 bytes).
    Removing stm32f10x_adc.o(i.ADC_ExternalTrigInjectedConvCmd), (22 bytes).
    Removing stm32f10x_adc.o(i.ADC_ExternalTrigInjectedConvConfig), (16 bytes).
    Removing stm32f10x_adc.o(i.ADC_GetConversionValue), (8 bytes).
    Removing stm32f10x_adc.o(i.ADC_GetDualModeConversionValue), (12 bytes).
    Removing stm32f10x_adc.o(i.ADC_GetFlagStatus), (18 bytes).
    Removing stm32f10x_adc.o(i.ADC_GetITStatus), (36 bytes).
    Removing stm32f10x_adc.o(i.ADC_GetInjectedConversionValue), (28 bytes).
    Removing stm32f10x_adc.o(i.ADC_GetSoftwareStartConvStatus), (20 bytes).
    Removing stm32f10x_adc.o(i.ADC_GetSoftwareStartInjectedConvCmdStatus), (20 bytes).
    Removing stm32f10x_adc.o(i.ADC_ITConfig), (24 bytes).
    Removing stm32f10x_adc.o(i.ADC_InjectedChannelConfig), (130 bytes).
    Removing stm32f10x_adc.o(i.ADC_InjectedDiscModeCmd), (22 bytes).
    Removing stm32f10x_adc.o(i.ADC_InjectedSequencerLengthConfig), (24 bytes).
    Removing stm32f10x_adc.o(i.ADC_SetInjectedOffset), (20 bytes).
    Removing stm32f10x_adc.o(i.ADC_SoftwareStartInjectedConvCmd), (22 bytes).
    Removing stm32f10x_adc.o(i.ADC_StructInit), (18 bytes).
    Removing stm32f10x_adc.o(i.ADC_TempSensorVrefintCmd), (36 bytes).
    Removing stm32f10x_tim.o(i.TI1_Config), (128 bytes).
    Removing stm32f10x_tim.o(i.TI2_Config), (152 bytes).
    Removing stm32f10x_tim.o(i.TI3_Config), (144 bytes).
    Removing stm32f10x_tim.o(i.TI4_Config), (152 bytes).
    Removing stm32f10x_tim.o(i.TIM_ARRPreloadConfig), (24 bytes).
    Removing stm32f10x_tim.o(i.TIM_BDTRConfig), (32 bytes).
    Removing stm32f10x_tim.o(i.TIM_BDTRStructInit), (18 bytes).
    Removing stm32f10x_tim.o(i.TIM_CCPreloadControl), (24 bytes).
    Removing stm32f10x_tim.o(i.TIM_CCxCmd), (30 bytes).
    Removing stm32f10x_tim.o(i.TIM_CCxNCmd), (30 bytes).
    Removing stm32f10x_tim.o(i.TIM_ClearFlag), (6 bytes).
    Removing stm32f10x_tim.o(i.TIM_ClearITPendingBit), (6 bytes).
    Removing stm32f10x_tim.o(i.TIM_ClearOC1Ref), (18 bytes).
    Removing stm32f10x_tim.o(i.TIM_ClearOC2Ref), (24 bytes).
    Removing stm32f10x_tim.o(i.TIM_ClearOC3Ref), (18 bytes).
    Removing stm32f10x_tim.o(i.TIM_ClearOC4Ref), (24 bytes).
    Removing stm32f10x_tim.o(i.TIM_Cmd), (24 bytes).
    Removing stm32f10x_tim.o(i.TIM_CounterModeConfig), (18 bytes).
    Removing stm32f10x_tim.o(i.TIM_CtrlPWMOutputs), (30 bytes).
    Removing stm32f10x_tim.o(i.TIM_DMACmd), (18 bytes).
    Removing stm32f10x_tim.o(i.TIM_DMAConfig), (10 bytes).
    Removing stm32f10x_tim.o(i.TIM_DeInit), (488 bytes).
    Removing stm32f10x_tim.o(i.TIM_ETRClockMode1Config), (54 bytes).
    Removing stm32f10x_tim.o(i.TIM_ETRClockMode2Config), (32 bytes).
    Removing stm32f10x_tim.o(i.TIM_ETRConfig), (28 bytes).
    Removing stm32f10x_tim.o(i.TIM_EncoderInterfaceConfig), (66 bytes).
    Removing stm32f10x_tim.o(i.TIM_ForcedOC1Config), (18 bytes).
    Removing stm32f10x_tim.o(i.TIM_ForcedOC2Config), (26 bytes).
    Removing stm32f10x_tim.o(i.TIM_ForcedOC3Config), (18 bytes).
    Removing stm32f10x_tim.o(i.TIM_ForcedOC4Config), (26 bytes).
    Removing stm32f10x_tim.o(i.TIM_GenerateEvent), (4 bytes).
    Removing stm32f10x_tim.o(i.TIM_GetCapture1), (6 bytes).
    Removing stm32f10x_tim.o(i.TIM_GetCapture2), (6 bytes).
    Removing stm32f10x_tim.o(i.TIM_GetCapture3), (6 bytes).
    Removing stm32f10x_tim.o(i.TIM_GetCapture4), (8 bytes).
    Removing stm32f10x_tim.o(i.TIM_GetCounter), (6 bytes).
    Removing stm32f10x_tim.o(i.TIM_GetFlagStatus), (18 bytes).
    Removing stm32f10x_tim.o(i.TIM_GetITStatus), (34 bytes).
    Removing stm32f10x_tim.o(i.TIM_GetPrescaler), (6 bytes).
    Removing stm32f10x_tim.o(i.TIM_ICInit), (172 bytes).
    Removing stm32f10x_tim.o(i.TIM_ICStructInit), (18 bytes).
    Removing stm32f10x_tim.o(i.TIM_ITConfig), (18 bytes).
    Removing stm32f10x_tim.o(i.TIM_ITRxExternalClockConfig), (24 bytes).
    Removing stm32f10x_tim.o(i.TIM_InternalClockConfig), (12 bytes).
    Removing stm32f10x_tim.o(i.TIM_OC1FastConfig), (18 bytes).
    Removing stm32f10x_tim.o(i.TIM_OC1Init), (152 bytes).
    Removing stm32f10x_tim.o(i.TIM_OC1NPolarityConfig), (18 bytes).
    Removing stm32f10x_tim.o(i.TIM_OC1PolarityConfig), (18 bytes).
    Removing stm32f10x_tim.o(i.TIM_OC1PreloadConfig), (18 bytes).
    Removing stm32f10x_tim.o(i.TIM_OC2FastConfig), (26 bytes).
    Removing stm32f10x_tim.o(i.TIM_OC2Init), (164 bytes).
    Removing stm32f10x_tim.o(i.TIM_OC2NPolarityConfig), (26 bytes).
    Removing stm32f10x_tim.o(i.TIM_OC2PolarityConfig), (26 bytes).
    Removing stm32f10x_tim.o(i.TIM_OC2PreloadConfig), (26 bytes).
    Removing stm32f10x_tim.o(i.TIM_OC3FastConfig), (18 bytes).
    Removing stm32f10x_tim.o(i.TIM_OC3Init), (160 bytes).
    Removing stm32f10x_tim.o(i.TIM_OC3NPolarityConfig), (26 bytes).
    Removing stm32f10x_tim.o(i.TIM_OC3PolarityConfig), (26 bytes).
    Removing stm32f10x_tim.o(i.TIM_OC3PreloadConfig), (18 bytes).
    Removing stm32f10x_tim.o(i.TIM_OC4FastConfig), (26 bytes).
    Removing stm32f10x_tim.o(i.TIM_OC4Init), (124 bytes).
    Removing stm32f10x_tim.o(i.TIM_OC4PolarityConfig), (26 bytes).
    Removing stm32f10x_tim.o(i.TIM_OC4PreloadConfig), (26 bytes).
    Removing stm32f10x_tim.o(i.TIM_OCStructInit), (20 bytes).
    Removing stm32f10x_tim.o(i.TIM_PWMIConfig), (124 bytes).
    Removing stm32f10x_tim.o(i.TIM_PrescalerConfig), (6 bytes).
    Removing stm32f10x_tim.o(i.TIM_SelectCCDMA), (24 bytes).
    Removing stm32f10x_tim.o(i.TIM_SelectCOM), (24 bytes).
    Removing stm32f10x_tim.o(i.TIM_SelectHallSensor), (24 bytes).
    Removing stm32f10x_tim.o(i.TIM_SelectInputTrigger), (18 bytes).
    Removing stm32f10x_tim.o(i.TIM_SelectMasterSlaveMode), (18 bytes).
    Removing stm32f10x_tim.o(i.TIM_SelectOCxM), (82 bytes).
    Removing stm32f10x_tim.o(i.TIM_SelectOnePulseMode), (18 bytes).
    Removing stm32f10x_tim.o(i.TIM_SelectOutputTrigger), (18 bytes).
    Removing stm32f10x_tim.o(i.TIM_SelectSlaveMode), (18 bytes).
    Removing stm32f10x_tim.o(i.TIM_SetAutoreload), (4 bytes).
    Removing stm32f10x_tim.o(i.TIM_SetClockDivision), (18 bytes).
    Removing stm32f10x_tim.o(i.TIM_SetCompare1), (4 bytes).
    Removing stm32f10x_tim.o(i.TIM_SetCompare2), (4 bytes).
    Removing stm32f10x_tim.o(i.TIM_SetCompare3), (4 bytes).
    Removing stm32f10x_tim.o(i.TIM_SetCompare4), (6 bytes).
    Removing stm32f10x_tim.o(i.TIM_SetCounter), (4 bytes).
    Removing stm32f10x_tim.o(i.TIM_SetIC1Prescaler), (18 bytes).
    Removing stm32f10x_tim.o(i.TIM_SetIC2Prescaler), (26 bytes).
    Removing stm32f10x_tim.o(i.TIM_SetIC3Prescaler), (18 bytes).
    Removing stm32f10x_tim.o(i.TIM_SetIC4Prescaler), (26 bytes).
    Removing stm32f10x_tim.o(i.TIM_TIxExternalClockConfig), (62 bytes).
    Removing stm32f10x_tim.o(i.TIM_TimeBaseInit), (164 bytes).
    Removing stm32f10x_tim.o(i.TIM_TimeBaseStructInit), (18 bytes).
    Removing stm32f10x_tim.o(i.TIM_UpdateDisableConfig), (24 bytes).
    Removing stm32f10x_tim.o(i.TIM_UpdateRequestConfig), (24 bytes).
    Removing stm32f10x_exti.o(i.EXTI_ClearFlag), (12 bytes).
    Removing stm32f10x_exti.o(i.EXTI_GenerateSWInterrupt), (16 bytes).
    Removing stm32f10x_exti.o(i.EXTI_GetFlagStatus), (24 bytes).
    Removing stm32f10x_can.o(i.CAN_CancelTransmit), (48 bytes).
    Removing stm32f10x_can.o(i.CAN_ClearFlag), (56 bytes).
    Removing stm32f10x_can.o(i.CAN_ClearITPendingBit), (168 bytes).
    Removing stm32f10x_can.o(i.CAN_DBGFreeze), (22 bytes).
    Removing stm32f10x_can.o(i.CAN_FIFORelease), (22 bytes).
    Removing stm32f10x_can.o(i.CAN_GetFlagStatus), (120 bytes).
    Removing stm32f10x_can.o(i.CAN_GetITStatus), (288 bytes).
    Removing stm32f10x_can.o(i.CAN_GetLSBTransmitErrorCounter), (12 bytes).
    Removing stm32f10x_can.o(i.CAN_GetLastErrorCode), (12 bytes).
    Removing stm32f10x_can.o(i.CAN_GetReceiveErrorCounter), (10 bytes).
    Removing stm32f10x_can.o(i.CAN_MessagePending), (30 bytes).
    Removing stm32f10x_can.o(i.CAN_OperatingModeRequest), (162 bytes).
    Removing stm32f10x_can.o(i.CAN_SlaveStartBank), (52 bytes).
    Removing stm32f10x_can.o(i.CAN_Sleep), (30 bytes).
    Removing stm32f10x_can.o(i.CAN_TTComModeCmd), (118 bytes).
    Removing stm32f10x_can.o(i.CAN_TransmitStatus), (156 bytes).
    Removing stm32f10x_can.o(i.CAN_WakeUp), (48 bytes).
    Removing stm32f10x_can.o(i.CheckITStatus), (16 bytes).
    Removing stm32f10x_iwdg.o(i.IWDG_GetFlagStatus), (24 bytes).
    Removing driver.o(i.GetMeterUartRxData), (48 bytes).
    Removing driver.o(i.GpsUsartIsRxDone), (60 bytes).
    Removing driver.o(i.MeterUartFixedLenSend), (48 bytes).
    Removing driver.o(i.MeterUartParaInit), (20 bytes).
    Removing selfdef.o(i.LittleBigSwap), (30 bytes).
    Removing sim.o(i.SimNumToTermId23), (116 bytes).
    Removing sim.o(i.SimTermId23ToAsciiNum), (100 bytes).
    Removing ppp.o(i.PppLcpTerminate), (28 bytes).
    Removing protocol.o(i.ProDownTrack), (68 bytes).
    Removing protocol.o(i.ProUpControllerErrorCode), (2 bytes).
    Removing fram.o(i.SpiFramWrWrdi), (36 bytes).
    Removing ftp.o(i.FtpWaitTransferComplete), (116 bytes).

274 unused section(s) (total 10890 bytes) removed from the image.

==============================================================================

Image Symbol Table

    Local Symbols

    Symbol Name                              Value     Ov Type        Size  Object(Section)

    ../clib/angel/boardlib.s                 0x00000000   Number         0  boardshut.o ABSOLUTE
    ../clib/angel/boardlib.s                 0x00000000   Number         0  boardinit1.o ABSOLUTE
    ../clib/angel/boardlib.s                 0x00000000   Number         0  boardinit2.o ABSOLUTE
    ../clib/angel/boardlib.s                 0x00000000   Number         0  boardinit3.o ABSOLUTE
    ../clib/angel/dczerorl2.s                0x00000000   Number         0  __dczerorl2.o ABSOLUTE
    ../clib/angel/handlers.s                 0x00000000   Number         0  __scatter_zi.o ABSOLUTE
    ../clib/angel/kernel.s                   0x00000000   Number         0  rtexit2.o ABSOLUTE
    ../clib/angel/kernel.s                   0x00000000   Number         0  rtentry4.o ABSOLUTE
    ../clib/angel/kernel.s                   0x00000000   Number         0  rtexit.o ABSOLUTE
    ../clib/angel/kernel.s                   0x00000000   Number         0  rtentry2.o ABSOLUTE
    ../clib/angel/kernel.s                   0x00000000   Number         0  rtentry.o ABSOLUTE
    ../clib/angel/rt.s                       0x00000000   Number         0  rt_raise.o ABSOLUTE
    ../clib/angel/scatter.s                  0x00000000   Number         0  __scatter.o ABSOLUTE
    ../clib/angel/startup.s                  0x00000000   Number         0  __main.o ABSOLUTE
    ../clib/angel/sys.s                      0x00000000   Number         0  use_no_semi.o ABSOLUTE
    ../clib/angel/sys.s                      0x00000000   Number         0  libspace.o ABSOLUTE
    ../clib/angel/sys.s                      0x00000000   Number         0  sys_stackheap_outer.o ABSOLUTE
    ../clib/angel/sys.s                      0x00000000   Number         0  indicate_semi.o ABSOLUTE
    ../clib/angel/sysapp.c                   0x00000000   Number         0  sys_wrch.o ABSOLUTE
    ../clib/angel/sysapp.c                   0x00000000   Number         0  sys_exit.o ABSOLUTE
    ../clib/angel/sysapp.c                   0x00000000   Number         0  sys_command.o ABSOLUTE
    ../clib/armsys.c                         0x00000000   Number         0  argv_veneer.o ABSOLUTE
    ../clib/armsys.c                         0x00000000   Number         0  argv_veneer.o ABSOLUTE
    ../clib/armsys.c                         0x00000000   Number         0  _get_argv_nomalloc.o ABSOLUTE
    ../clib/armsys.c                         0x00000000   Number         0  no_argv.o ABSOLUTE
    ../clib/heapalloc.c                      0x00000000   Number         0  hrguard.o ABSOLUTE
    ../clib/heapaux.c                        0x00000000   Number         0  heapauxi.o ABSOLUTE
    ../clib/libinit.s                        0x00000000   Number         0  libshutdown2.o ABSOLUTE
    ../clib/libinit.s                        0x00000000   Number         0  libinit.o ABSOLUTE
    ../clib/libinit.s                        0x00000000   Number         0  libinit2.o ABSOLUTE
    ../clib/libinit.s                        0x00000000   Number         0  libshutdown.o ABSOLUTE
    ../clib/longlong.s                       0x00000000   Number         0  lludiv10.o ABSOLUTE
    ../clib/memcpset.s                       0x00000000   Number         0  rt_memclr_w.o ABSOLUTE
    ../clib/memcpset.s                       0x00000000   Number         0  rt_memcpy_v6.o ABSOLUTE
    ../clib/memcpset.s                       0x00000000   Number         0  rt_memcpy_w.o ABSOLUTE
    ../clib/misc.s                           0x00000000   Number         0  printf_stubs.o ABSOLUTE
    ../clib/printf.c                         0x00000000   Number         0  __printf_flags_ss.o ABSOLUTE
    ../clib/printf.c                         0x00000000   Number         0  _printf_hex_ptr.o ABSOLUTE
    ../clib/printf.c                         0x00000000   Number         0  _printf_hex_int_ptr.o ABSOLUTE
    ../clib/printf.c                         0x00000000   Number         0  __printf_nopercent.o ABSOLUTE
    ../clib/printf.c                         0x00000000   Number         0  _printf_hex_int.o ABSOLUTE
    ../clib/printf.c                         0x00000000   Number         0  __printf_wp.o ABSOLUTE
    ../clib/printf.c                         0x00000000   Number         0  __printf_ss_wp.o ABSOLUTE
    ../clib/printf.c                         0x00000000   Number         0  __printf_flags_ss_wp.o ABSOLUTE
    ../clib/printf.c                         0x00000000   Number         0  _printf_hex_int_ll.o ABSOLUTE
    ../clib/printf.c                         0x00000000   Number         0  _printf_hex_ll.o ABSOLUTE
    ../clib/printf.c                         0x00000000   Number         0  _sputc.o ABSOLUTE
    ../clib/printf.c                         0x00000000   Number         0  _printf_longlong_dec.o ABSOLUTE
    ../clib/printf.c                         0x00000000   Number         0  _printf_dec.o ABSOLUTE
    ../clib/printf.c                         0x00000000   Number         0  _printf_str.o ABSOLUTE
    ../clib/printf.c                         0x00000000   Number         0  _printf_pad.o ABSOLUTE
    ../clib/printf.c                         0x00000000   Number         0  __printf.o ABSOLUTE
    ../clib/printf.c                         0x00000000   Number         0  __printf_ss.o ABSOLUTE
    ../clib/printf.c                         0x00000000   Number         0  __2sprintf.o ABSOLUTE
    ../clib/printf.c                         0x00000000   Number         0  __printf_flags.o ABSOLUTE
    ../clib/printf.c                         0x00000000   Number         0  _printf_hex_int_ll_ptr.o ABSOLUTE
    ../clib/printf.c                         0x00000000   Number         0  _printf_hex_ll_ptr.o ABSOLUTE
    ../clib/printf.c                         0x00000000   Number         0  _printf_char_common.o ABSOLUTE
    ../clib/printf.c                         0x00000000   Number         0  _printf_char.o ABSOLUTE
    ../clib/printf.c                         0x00000000   Number         0  noretval__2sprintf.o ABSOLUTE
    ../clib/printf.c                         0x00000000   Number         0  __printf_flags_wp.o ABSOLUTE
    ../clib/printf.c                         0x00000000   Number         0  _printf_intcommon.o ABSOLUTE
    ../clib/printf_percent.s                 0x00000000   Number         0  _printf_d.o ABSOLUTE
    ../clib/printf_percent.s                 0x00000000   Number         0  _printf_s.o ABSOLUTE
    ../clib/printf_percent.s                 0x00000000   Number         0  _printf_c.o ABSOLUTE
    ../clib/printf_percent.s                 0x00000000   Number         0  _printf_u.o ABSOLUTE
    ../clib/printf_percent.s                 0x00000000   Number         0  _printf_percent_end.o ABSOLUTE
    ../clib/printf_percent.s                 0x00000000   Number         0  _printf_percent.o ABSOLUTE
    ../clib/printf_percent.s                 0x00000000   Number         0  _printf_ll.o ABSOLUTE
    ../clib/printf_percent.s                 0x00000000   Number         0  _printf_x.o ABSOLUTE
    ../clib/printf_percent.s                 0x00000000   Number         0  _printf_llu.o ABSOLUTE
    ../clib/signal.c                         0x00000000   Number         0  defsig_pvfn_inner.o ABSOLUTE
    ../clib/signal.c                         0x00000000   Number         0  defsig_stak_inner.o ABSOLUTE
    ../clib/signal.c                         0x00000000   Number         0  defsig_fpe_inner.o ABSOLUTE
    ../clib/signal.c                         0x00000000   Number         0  defsig_abrt_inner.o ABSOLUTE
    ../clib/signal.c                         0x00000000   Number         0  defsig_rtred_inner.o ABSOLUTE
    ../clib/signal.c                         0x00000000   Number         0  defsig_rtmem_outer.o ABSOLUTE
    ../clib/signal.c                         0x00000000   Number         0  defsig_rtmem_formal.o ABSOLUTE
    ../clib/signal.c                         0x00000000   Number         0  defsig_general.o ABSOLUTE
    ../clib/signal.c                         0x00000000   Number         0  defsig_exit.o ABSOLUTE
    ../clib/signal.c                         0x00000000   Number         0  defsig_rtmem_inner.o ABSOLUTE
    ../clib/signal.c                         0x00000000   Number         0  __raise.o ABSOLUTE
    ../clib/signal.c                         0x00000000   Number         0  defsig_other.o ABSOLUTE
    ../clib/signal.c                         0x00000000   Number         0  defsig_segv_inner.o ABSOLUTE
    ../clib/signal.c                         0x00000000   Number         0  defsig_cppl_inner.o ABSOLUTE
    ../clib/signal.s                         0x00000000   Number         0  defsig.o ABSOLUTE
    ../clib/stdlib.c                         0x00000000   Number         0  exit.o ABSOLUTE
    ../clib/time.c                           0x00000000   Number         0  localtime.o ABSOLUTE
    ../clib/time.c                           0x00000000   Number         0  mktime.o ABSOLUTE
    ../clib/time.c                           0x00000000   Number         0  _monlen.o ABSOLUTE
    ../clib/time.c                           0x00000000   Number         0  localtime_internal.o ABSOLUTE
    ../fplib/fpinit.s                        0x00000000   Number         0  fpinit.o ABSOLUTE
    ..\Lib\cmsis\core_cm3.c                  0x00000000   Number         0  core_cm3.o ABSOLUTE
    ..\Lib\cmsis\system_stm32f10x.c          0x00000000   Number         0  system_stm32f10x.o ABSOLUTE
    ..\Lib\src\misc.c                        0x00000000   Number         0  misc.o ABSOLUTE
    ..\Lib\src\stm32f10x_adc.c               0x00000000   Number         0  stm32f10x_adc.o ABSOLUTE
    ..\Lib\src\stm32f10x_bkp.c               0x00000000   Number         0  stm32f10x_bkp.o ABSOLUTE
    ..\Lib\src\stm32f10x_can.c               0x00000000   Number         0  stm32f10x_can.o ABSOLUTE
    ..\Lib\src\stm32f10x_dma.c               0x00000000   Number         0  stm32f10x_dma.o ABSOLUTE
    ..\Lib\src\stm32f10x_exti.c              0x00000000   Number         0  stm32f10x_exti.o ABSOLUTE
    ..\Lib\src\stm32f10x_flash.c             0x00000000   Number         0  stm32f10x_flash.o ABSOLUTE
    ..\Lib\src\stm32f10x_gpio.c              0x00000000   Number         0  stm32f10x_gpio.o ABSOLUTE
    ..\Lib\src\stm32f10x_iwdg.c              0x00000000   Number         0  stm32f10x_iwdg.o ABSOLUTE
    ..\Lib\src\stm32f10x_pwr.c               0x00000000   Number         0  stm32f10x_pwr.o ABSOLUTE
    ..\Lib\src\stm32f10x_rcc.c               0x00000000   Number         0  stm32f10x_rcc.o ABSOLUTE
    ..\Lib\src\stm32f10x_rtc.c               0x00000000   Number         0  stm32f10x_rtc.o ABSOLUTE
    ..\Lib\src\stm32f10x_spi.c               0x00000000   Number         0  stm32f10x_spi.o ABSOLUTE
    ..\Lib\src\stm32f10x_tim.c               0x00000000   Number         0  stm32f10x_tim.o ABSOLUTE
    ..\Lib\src\stm32f10x_usart.c             0x00000000   Number         0  stm32f10x_usart.o ABSOLUTE
    ..\Lib\startup\arm\startup_stm32f10x_hd.s 0x00000000   Number         0  startup_stm32f10x_hd.o ABSOLUTE
    ..\\Lib\\cmsis\\core_cm3.c               0x00000000   Number         0  core_cm3.o ABSOLUTE
    ..\main\main.c                           0x00000000   Number         0  main.o ABSOLUTE
    ..\src\can.c                             0x00000000   Number         0  can.o ABSOLUTE
    ..\src\driver.c                          0x00000000   Number         0  driver.o ABSOLUTE
    ..\src\flash.c                           0x00000000   Number         0  flash.o ABSOLUTE
    ..\src\fram.c                            0x00000000   Number         0  fram.o ABSOLUTE
    ..\src\ftp.c                             0x00000000   Number         0  ftp.o ABSOLUTE
    ..\src\gprs.c                            0x00000000   Number         0  gprs.o ABSOLUTE
    ..\src\gps.c                             0x00000000   Number         0  gps.o ABSOLUTE
    ..\src\localcomm.c                       0x00000000   Number         0  localcomm.o ABSOLUTE
    ..\src\ppp.c                             0x00000000   Number         0  ppp.o ABSOLUTE
    ..\src\protocol.c                        0x00000000   Number         0  protocol.o ABSOLUTE
    ..\src\selfdef.c                         0x00000000   Number         0  selfdef.o ABSOLUTE
    ..\src\sim.c                             0x00000000   Number         0  sim.o ABSOLUTE
    ..\src\sms.c                             0x00000000   Number         0  sms.o ABSOLUTE
    ..\src\stm32f10x_it.c                    0x00000000   Number         0  stm32f10x_it.o ABSOLUTE
    ..\src\syspara.c                         0x00000000   Number         0  syspara.o ABSOLUTE
    ..\src\systask.c                         0x00000000   Number         0  systask.o ABSOLUTE
    dc.s                                     0x00000000   Number         0  dc.o ABSOLUTE
    RESET                                    0x08002000   Section      304  startup_stm32f10x_hd.o(RESET)
    !!!main                                  0x08002130   Section        8  __main.o(!!!main)
    !!!scatter                               0x08002138   Section       52  __scatter.o(!!!scatter)
    !!dczerorl2                              0x0800216c   Section       90  __dczerorl2.o(!!dczerorl2)
    !!handler_zi                             0x080021c8   Section       28  __scatter_zi.o(!!handler_zi)
    .ARM.Collect$$_printf_percent$$00000000  0x080021e4   Section        0  _printf_percent.o(.ARM.Collect$$_printf_percent$$00000000)
    .ARM.Collect$$_printf_percent$$00000007  0x080021e4   Section       10  _printf_ll.o(.ARM.Collect$$_printf_percent$$00000007)
    .ARM.Collect$$_printf_percent$$00000009  0x080021ee   Section        6  _printf_d.o(.ARM.Collect$$_printf_percent$$00000009)
    .ARM.Collect$$_printf_percent$$0000000A  0x080021f4   Section        6  _printf_u.o(.ARM.Collect$$_printf_percent$$0000000A)
    .ARM.Collect$$_printf_percent$$0000000C  0x080021fa   Section        6  _printf_x.o(.ARM.Collect$$_printf_percent$$0000000C)
    .ARM.Collect$$_printf_percent$$0000000F  0x08002200   Section        6  _printf_llu.o(.ARM.Collect$$_printf_percent$$0000000F)
    .ARM.Collect$$_printf_percent$$00000013  0x08002206   Section        6  _printf_c.o(.ARM.Collect$$_printf_percent$$00000013)
    .ARM.Collect$$_printf_percent$$00000014  0x0800220c   Section        6  _printf_s.o(.ARM.Collect$$_printf_percent$$00000014)
    .ARM.Collect$$_printf_percent$$00000017  0x08002212   Section        4  _printf_percent_end.o(.ARM.Collect$$_printf_percent$$00000017)
    .ARM.Collect$$libinit$$00000000          0x08002216   Section        2  libinit.o(.ARM.Collect$$libinit$$00000000)
    .ARM.Collect$$libinit$$00000002          0x08002218   Section        0  libinit2.o(.ARM.Collect$$libinit$$00000002)
    .ARM.Collect$$libinit$$00000008          0x08002218   Section        0  libinit2.o(.ARM.Collect$$libinit$$00000008)
    .ARM.Collect$$libinit$$0000000A          0x08002218   Section        0  libinit2.o(.ARM.Collect$$libinit$$0000000A)
    .ARM.Collect$$libinit$$0000000C          0x08002218   Section        0  libinit2.o(.ARM.Collect$$libinit$$0000000C)
    .ARM.Collect$$libinit$$0000000F          0x08002218   Section        0  libinit2.o(.ARM.Collect$$libinit$$0000000F)
    .ARM.Collect$$libinit$$00000011          0x08002218   Section        0  libinit2.o(.ARM.Collect$$libinit$$00000011)
    .ARM.Collect$$libinit$$00000013          0x08002218   Section        0  libinit2.o(.ARM.Collect$$libinit$$00000013)
    .ARM.Collect$$libinit$$00000015          0x08002218   Section        0  libinit2.o(.ARM.Collect$$libinit$$00000015)
    .ARM.Collect$$libinit$$00000017          0x08002218   Section        0  libinit2.o(.ARM.Collect$$libinit$$00000017)
    .ARM.Collect$$libinit$$00000019          0x08002218   Section        0  libinit2.o(.ARM.Collect$$libinit$$00000019)
    .ARM.Collect$$libinit$$0000001B          0x08002218   Section        0  libinit2.o(.ARM.Collect$$libinit$$0000001B)
    .ARM.Collect$$libinit$$0000001D          0x08002218   Section        0  libinit2.o(.ARM.Collect$$libinit$$0000001D)
    .ARM.Collect$$libinit$$0000001F          0x08002218   Section        0  libinit2.o(.ARM.Collect$$libinit$$0000001F)
    .ARM.Collect$$libinit$$00000021          0x08002218   Section        0  libinit2.o(.ARM.Collect$$libinit$$00000021)
    .ARM.Collect$$libinit$$00000023          0x08002218   Section        0  libinit2.o(.ARM.Collect$$libinit$$00000023)
    .ARM.Collect$$libinit$$0000002A          0x08002218   Section        0  libinit2.o(.ARM.Collect$$libinit$$0000002A)
    .ARM.Collect$$libinit$$0000002C          0x08002218   Section        0  libinit2.o(.ARM.Collect$$libinit$$0000002C)
    .ARM.Collect$$libinit$$0000002E          0x08002218   Section        0  libinit2.o(.ARM.Collect$$libinit$$0000002E)
    .ARM.Collect$$libinit$$00000030          0x08002218   Section        0  libinit2.o(.ARM.Collect$$libinit$$00000030)
    .ARM.Collect$$libinit$$00000031          0x08002218   Section        2  libinit2.o(.ARM.Collect$$libinit$$00000031)
    .ARM.Collect$$libshutdown$$00000000      0x0800221a   Section        2  libshutdown.o(.ARM.Collect$$libshutdown$$00000000)
    .ARM.Collect$$libshutdown$$00000003      0x0800221c   Section        0  libshutdown2.o(.ARM.Collect$$libshutdown$$00000003)
    .ARM.Collect$$libshutdown$$00000006      0x0800221c   Section        0  libshutdown2.o(.ARM.Collect$$libshutdown$$00000006)
    .ARM.Collect$$libshutdown$$00000009      0x0800221c   Section        0  libshutdown2.o(.ARM.Collect$$libshutdown$$00000009)
    .ARM.Collect$$libshutdown$$0000000B      0x0800221c   Section        0  libshutdown2.o(.ARM.Collect$$libshutdown$$0000000B)
    .ARM.Collect$$libshutdown$$0000000E      0x0800221c   Section        0  libshutdown2.o(.ARM.Collect$$libshutdown$$0000000E)
    .ARM.Collect$$libshutdown$$0000000F      0x0800221c   Section        2  libshutdown2.o(.ARM.Collect$$libshutdown$$0000000F)
    .ARM.Collect$$rtentry$$00000000          0x0800221e   Section        0  rtentry.o(.ARM.Collect$$rtentry$$00000000)
    .ARM.Collect$$rtentry$$00000002          0x0800221e   Section        0  rtentry2.o(.ARM.Collect$$rtentry$$00000002)
    .ARM.Collect$$rtentry$$00000004          0x0800221e   Section        6  rtentry4.o(.ARM.Collect$$rtentry$$00000004)
    .ARM.Collect$$rtentry$$00000009          0x08002224   Section        0  rtentry2.o(.ARM.Collect$$rtentry$$00000009)
    .ARM.Collect$$rtentry$$0000000A          0x08002224   Section        4  rtentry2.o(.ARM.Collect$$rtentry$$0000000A)
    .ARM.Collect$$rtentry$$0000000C          0x08002228   Section        0  rtentry2.o(.ARM.Collect$$rtentry$$0000000C)
    .ARM.Collect$$rtentry$$0000000D          0x08002228   Section        8  rtentry2.o(.ARM.Collect$$rtentry$$0000000D)
    .ARM.Collect$$rtexit$$00000000           0x08002230   Section        2  rtexit.o(.ARM.Collect$$rtexit$$00000000)
    .ARM.Collect$$rtexit$$00000002           0x08002232   Section        0  rtexit2.o(.ARM.Collect$$rtexit$$00000002)
    .ARM.Collect$$rtexit$$00000003           0x08002232   Section        4  rtexit2.o(.ARM.Collect$$rtexit$$00000003)
    .ARM.Collect$$rtexit$$00000004           0x08002236   Section        6  rtexit2.o(.ARM.Collect$$rtexit$$00000004)
    .text                                    0x0800223c   Section       64  startup_stm32f10x_hd.o(.text)
    .text                                    0x0800227c   Section        0  __2sprintf.o(.text)
    .text                                    0x080022a8   Section        0  _printf_pad.o(.text)
    .text                                    0x080022fa   Section        0  _printf_str.o(.text)
    .text                                    0x0800234c   Section        0  _printf_dec.o(.text)
    .text                                    0x080023c4   Section        0  _printf_longlong_dec.o(.text)
    .text                                    0x0800243c   Section        0  _printf_hex_int.o(.text)
    .text                                    0x08002498   Section        0  __printf_flags_ss_wp.o(.text)
    .text                                    0x08002624   Section      138  rt_memcpy_v6.o(.text)
    .text                                    0x080026ae   Section      100  rt_memcpy_w.o(.text)
    .text                                    0x08002714   Section        0  localtime.o(.text)
    .text                                    0x08002720   Section        0  mktime.o(.text)
    _tm_carry                                0x08002721   Thumb Code    54  mktime.o(.text)
    .text                                    0x080028c4   Section        0  heapauxi.o(.text)
    .text                                    0x080028ca   Section      138  lludiv10.o(.text)
    .text                                    0x08002954   Section        0  _printf_intcommon.o(.text)
    .text                                    0x08002a0c   Section        0  _printf_char_common.o(.text)
    _printf_input_char                       0x08002a0d   Thumb Code    10  _printf_char_common.o(.text)
    .text                                    0x08002a3c   Section        0  _sputc.o(.text)
    .text                                    0x08002a46   Section        0  _printf_char.o(.text)
    .text                                    0x08002a74   Section        0  localtime_internal.o(.text)
    .text                                    0x08002b18   Section       78  rt_memclr_w.o(.text)
    .text                                    0x08002b66   Section       74  sys_stackheap_outer.o(.text)
    .text                                    0x08002bb0   Section        0  exit.o(.text)
    .text                                    0x08002bbc   Section        8  libspace.o(.text)
    .text                                    0x08002bc4   Section        0  sys_exit.o(.text)
    .text                                    0x08002bd0   Section        2  use_no_semi.o(.text)
    .text                                    0x08002bd2   Section        0  indicate_semi.o(.text)
    i.ADC_Cmd                                0x08002bd2   Section        0  stm32f10x_adc.o(i.ADC_Cmd)
    i.ADC_DMACmd                             0x08002be8   Section        0  stm32f10x_adc.o(i.ADC_DMACmd)
    i.ADC_GetCalibrationStatus               0x08002bfe   Section        0  stm32f10x_adc.o(i.ADC_GetCalibrationStatus)
    i.ADC_GetResetCalibrationStatus          0x08002c12   Section        0  stm32f10x_adc.o(i.ADC_GetResetCalibrationStatus)
    i.ADC_Init                               0x08002c28   Section        0  stm32f10x_adc.o(i.ADC_Init)
    i.ADC_RegularChannelConfig               0x08002c78   Section        0  stm32f10x_adc.o(i.ADC_RegularChannelConfig)
    i.ADC_ResetCalibration                   0x08002d30   Section        0  stm32f10x_adc.o(i.ADC_ResetCalibration)
    i.ADC_SoftwareStartConvCmd               0x08002d3a   Section        0  stm32f10x_adc.o(i.ADC_SoftwareStartConvCmd)
    i.ADC_StartCalibration                   0x08002d50   Section        0  stm32f10x_adc.o(i.ADC_StartCalibration)
    i.AccMonitor                             0x08002d5c   Section        0  systask.o(i.AccMonitor)
    i.AccOnOffDataAppend                     0x08002f38   Section        0  systask.o(i.AccOnOffDataAppend)
    i.AccOnOffDataInit                       0x08003020   Section        0  systask.o(i.AccOnOffDataInit)
    i.AccOnOffStatisticDataCheck             0x08003064   Section        0  systask.o(i.AccOnOffStatisticDataCheck)
    i.AccOnOffStatisticDataSave              0x080030b4   Section        0  systask.o(i.AccOnOffStatisticDataSave)
    i.AdcInit                                0x08003120   Section        0  driver.o(i.AdcInit)
    i.AsciiToHex                             0x080031d8   Section        0  selfdef.o(i.AsciiToHex)
    i.AsciiToHexVal                          0x08003208   Section        0  selfdef.o(i.AsciiToHexVal)
    i.AtAdtFun                               0x08003274   Section        0  gprs.o(i.AtAdtFun)
    i.AtAthFun                               0x0800328c   Section        0  gprs.o(i.AtAthFun)
    i.AtCgatt0Fun                            0x080032a4   Section        0  gprs.o(i.AtCgatt0Fun)
    i.AtCgatt1Fun                            0x080032bc   Section        0  gprs.o(i.AtCgatt1Fun)
    i.AtCgattFun                             0x080032d4   Section        0  gprs.o(i.AtCgattFun)
    i.AtCgdcontFun                           0x0800332c   Section        0  gprs.o(i.AtCgdcontFun)
    i.AtCimiFun                              0x08003344   Section        0  gprs.o(i.AtCimiFun)
    i.AtCmdModeFun                           0x080034ac   Section        0  gprs.o(i.AtCmdModeFun)
    i.AtCmgdFun                              0x080034c4   Section        0  gprs.o(i.AtCmgdFun)
    i.AtCmgfFun                              0x080034dc   Section        0  gprs.o(i.AtCmgfFun)
    i.AtCmglFun                              0x080034f4   Section        0  gprs.o(i.AtCmglFun)
    i.AtCmgsFun                              0x08003544   Section        0  gprs.o(i.AtCmgsFun)
    i.AtCnumFun                              0x0800355c   Section        0  gprs.o(i.AtCnumFun)
    i.AtCpbsOnFun                            0x0800360c   Section        0  gprs.o(i.AtCpbsOnFun)
    i.AtCpbwFun                              0x08003624   Section        0  gprs.o(i.AtCpbwFun)
    i.AtCregFun                              0x0800363c   Section        0  gprs.o(i.AtCregFun)
    i.AtCsqFun                               0x08003698   Section        0  gprs.o(i.AtCsqFun)
    i.AtE0Fun                                0x08003738   Section        0  gprs.o(i.AtE0Fun)
    i.AtFun                                  0x08003750   Section        0  gprs.o(i.AtFun)
    i.AtGprsDataModeFun                      0x08003768   Section        0  gprs.o(i.AtGprsDataModeFun)
    i.AtImeiFun                              0x08003780   Section        0  gprs.o(i.AtImeiFun)
    i.AtIprFun                               0x080037ec   Section        0  gprs.o(i.AtIprFun)
    i.AtNullFun                              0x08003804   Section        0  gprs.o(i.AtNullFun)
    i.AtSleepFun                             0x0800381c   Section        0  gprs.o(i.AtSleepFun)
    i.AtWakeFun                              0x08003834   Section        0  gprs.o(i.AtWakeFun)
    i.BKP_DeInit                             0x0800384c   Section        0  stm32f10x_bkp.o(i.BKP_DeInit)
    i.BusFault_Handler                       0x0800385c   Section        0  stm32f10x_it.o(i.BusFault_Handler)
    i.CAN_DeInit                             0x08003860   Section        0  stm32f10x_can.o(i.CAN_DeInit)
    i.CAN_FilterInit                         0x08003898   Section        0  stm32f10x_can.o(i.CAN_FilterInit)
    i.CAN_ITConfig                           0x080039a0   Section        0  stm32f10x_can.o(i.CAN_ITConfig)
    i.CAN_Init                               0x080039b2   Section        0  stm32f10x_can.o(i.CAN_Init)
    i.CAN_Receive                            0x08003ac6   Section        0  stm32f10x_can.o(i.CAN_Receive)
    i.CAN_StructInit                         0x08003bb6   Section        0  stm32f10x_can.o(i.CAN_StructInit)
    i.CAN_Transmit                           0x08003bd6   Section        0  stm32f10x_can.o(i.CAN_Transmit)
    i.CanDataInit                            0x08003cfc   Section        0  can.o(i.CanDataInit)
    i.CanDataRead                            0x08003d10   Section        0  can.o(i.CanDataRead)
    i.CanDataWrite                           0x08003d3c   Section        0  can.o(i.CanDataWrite)
    i.CanDeInit                              0x08003d60   Section        0  can.o(i.CanDeInit)
    i.CanFilterInit                          0x08003d9c   Section        0  can.o(i.CanFilterInit)
    i.CanInit                                0x08003df4   Section        0  can.o(i.CanInit)
    i.CanMain                                0x08003f44   Section        0  can.o(i.CanMain)
    i.CanMonitor                             0x08003fb0   Section        0  can.o(i.CanMonitor)
    i.CanProcess                             0x0800413c   Section        0  can.o(i.CanProcess)
    i.CanRx                                  0x0800415c   Section        0  can.o(i.CanRx)
    i.CanTx                                  0x0800433c   Section        0  can.o(i.CanTx)
    i.CanTxData                              0x08004520   Section        0  can.o(i.CanTxData)
    i.Crc16Verify                            0x08004558   Section        0  selfdef.o(i.Crc16Verify)
    i.CrcCheck                               0x08004598   Section        0  selfdef.o(i.CrcCheck)
    i.DMA1_Channel1_IRQHandler               0x080045e0   Section        0  stm32f10x_it.o(i.DMA1_Channel1_IRQHandler)
    i.DMA_ClearITPendingBit                  0x0800467c   Section        0  stm32f10x_dma.o(i.DMA_ClearITPendingBit)
    i.DMA_Cmd                                0x08004698   Section        0  stm32f10x_dma.o(i.DMA_Cmd)
    i.DMA_DeInit                             0x080046b0   Section        0  stm32f10x_dma.o(i.DMA_DeInit)
    i.DMA_GetFlagStatus                      0x080047fc   Section        0  stm32f10x_dma.o(i.DMA_GetFlagStatus)
    i.DMA_ITConfig                           0x08004828   Section        0  stm32f10x_dma.o(i.DMA_ITConfig)
    i.DMA_Init                               0x0800483a   Section        0  stm32f10x_dma.o(i.DMA_Init)
    i.DayChangeMonitor                       0x08004878   Section        0  systask.o(i.DayChangeMonitor)
    i.DebugMon_Handler                       0x080049ac   Section        0  stm32f10x_it.o(i.DebugMon_Handler)
    i.DmaInit                                0x080049b0   Section        0  driver.o(i.DmaInit)
    i.DriverMain                             0x08004a30   Section        0  driver.o(i.DriverMain)
    i.EXTI15_10_IRQHandler                   0x08004a88   Section        0  stm32f10x_it.o(i.EXTI15_10_IRQHandler)
    i.EXTI9_5_IRQHandler                     0x08004af8   Section        0  stm32f10x_it.o(i.EXTI9_5_IRQHandler)
    i.EXTI_ClearITPendingBit                 0x08004b74   Section        0  stm32f10x_exti.o(i.EXTI_ClearITPendingBit)
    i.EXTI_DeInit                            0x08004b80   Section        0  stm32f10x_exti.o(i.EXTI_DeInit)
    i.EXTI_GetITStatus                       0x08004ba4   Section        0  stm32f10x_exti.o(i.EXTI_GetITStatus)
    i.EXTI_Init                              0x08004bcc   Section        0  stm32f10x_exti.o(i.EXTI_Init)
    i.EXTI_StructInit                        0x08004c60   Section        0  stm32f10x_exti.o(i.EXTI_StructInit)
    i.ExitInit                               0x08004c70   Section        0  driver.o(i.ExitInit)
    i.FLASH_ErasePage                        0x08004d44   Section        0  stm32f10x_flash.o(i.FLASH_ErasePage)
    i.FLASH_GetBank1Status                   0x08004d90   Section        0  stm32f10x_flash.o(i.FLASH_GetBank1Status)
    i.FLASH_Lock                             0x08004dc4   Section        0  stm32f10x_flash.o(i.FLASH_Lock)
    i.FLASH_ProgramWord                      0x08004dd8   Section        0  stm32f10x_flash.o(i.FLASH_ProgramWord)
    i.FLASH_Unlock                           0x08004e44   Section        0  stm32f10x_flash.o(i.FLASH_Unlock)
    i.FLASH_WaitForLastOperation             0x08004e5c   Section        0  stm32f10x_flash.o(i.FLASH_WaitForLastOperation)
    i.FeedWtd                                0x08004e84   Section        0  driver.o(i.FeedWtd)
    i.FlashErase                             0x08004ebc   Section        0  flash.o(i.FlashErase)
    i.FlashRead                              0x08004ede   Section        0  flash.o(i.FlashRead)
    i.FlashWrite                             0x08004efc   Section        0  flash.o(i.FlashWrite)
    i.FtpAddrAnalysis                        0x08004f48   Section        0  ftp.o(i.FtpAddrAnalysis)
    i.FtpConnect                             0x08005134   Section        0  ftp.o(i.FtpConnect)
    i.FtpDelay                               0x080051b8   Section        0  ftp.o(i.FtpDelay)
    i.FtpFileSave                            0x08005234   Section        0  ftp.o(i.FtpFileSave)
    i.FtpFun                                 0x080052d4   Section        0  ftp.o(i.FtpFun)
    i.FtpGetFile                             0x080052fc   Section        0  ftp.o(i.FtpGetFile)
    i.FtpGetSize                             0x080053cc   Section        0  ftp.o(i.FtpGetSize)
    i.FtpIpPortInit                          0x080054c4   Section        0  ftp.o(i.FtpIpPortInit)
    i.FtpMain                                0x08005548   Section        0  ftp.o(i.FtpMain)
    i.FtpProcess                             0x080056a0   Section        0  ftp.o(i.FtpProcess)
    i.FtpTerminate                           0x0800588c   Section        0  ftp.o(i.FtpTerminate)
    i.FtpTx                                  0x080058d4   Section        0  ftp.o(i.FtpTx)
    i.FtpTxCwd                               0x080059fc   Section        0  ftp.o(i.FtpTxCwd)
    i.FtpTxPassword                          0x08005aac   Section        0  ftp.o(i.FtpTxPassword)
    i.FtpTxPasv                              0x08005b4c   Section        0  ftp.o(i.FtpTxPasv)
    i.FtpTxTypeI                             0x08005c3c   Section        0  ftp.o(i.FtpTxTypeI)
    i.FtpTxUserName                          0x08005ca8   Section        0  ftp.o(i.FtpTxUserName)
    i.GPIO_Init                              0x08005d48   Section        0  stm32f10x_gpio.o(i.GPIO_Init)
    i.GPIO_ReadInputDataBit                  0x08005e5a   Section        0  stm32f10x_gpio.o(i.GPIO_ReadInputDataBit)
    i.GPIO_ResetBits                         0x08005e6c   Section        0  stm32f10x_gpio.o(i.GPIO_ResetBits)
    i.GPIO_SetBits                           0x08005e70   Section        0  stm32f10x_gpio.o(i.GPIO_SetBits)
    i.GetAccAtatistic                        0x08005e74   Section        0  syspara.o(i.GetAccAtatistic)
    i.GetApn                                 0x08005e9c   Section        0  syspara.o(i.GetApn)
    i.GetGprsUartRxData                      0x08005ebc   Section        0  driver.o(i.GetGprsUartRxData)
    i.GetGpsInfo                             0x08006048   Section        0  gps.o(i.GetGpsInfo)
    i.GetGpsUartRxData                       0x08006088   Section        0  driver.o(i.GetGpsUartRxData)
    i.GetHardwareVersion                     0x080060b0   Section        0  syspara.o(i.GetHardwareVersion)
    i.GetLocalUartRxData                     0x080060e8   Section        0  driver.o(i.GetLocalUartRxData)
    i.GetLowVoltageAlarm                     0x08006110   Section        0  syspara.o(i.GetLowVoltageAlarm)
    i.GetLsnalLockEnableFlag                 0x0800612c   Section        0  syspara.o(i.GetLsnalLockEnableFlag)
    i.GetLsnalLockPara                       0x08006140   Section        0  syspara.o(i.GetLsnalLockPara)
    i.GetMasterIp                            0x0800615c   Section        0  syspara.o(i.GetMasterIp)
    i.GetMeterErrTimer                       0x08006174   Section        0  syspara.o(i.GetMeterErrTimer)
    i.GetOverSpeed                           0x08006190   Section        0  syspara.o(i.GetOverSpeed)
    i.GetPort                                0x080061ac   Section        0  syspara.o(i.GetPort)
    i.GetSlaverIp                            0x080061c8   Section        0  syspara.o(i.GetSlaverIp)
    i.GetSleepTimer                          0x080061e0   Section        0  syspara.o(i.GetSleepTimer)
    i.GetSmsAlarmCenterNum                   0x080061fc   Section        0  syspara.o(i.GetSmsAlarmCenterNum)
    i.GetSoftWareVersion                     0x0800621c   Section        0  syspara.o(i.GetSoftWareVersion)
    i.GetTerminalId                          0x0800623c   Section        0  syspara.o(i.GetTerminalId)
    i.GetTerminalPassword                    0x08006254   Section        0  syspara.o(i.GetTerminalPassword)
    i.GetTerminalSerialNum                   0x08006284   Section        0  syspara.o(i.GetTerminalSerialNum)
    i.GetWorkPara                            0x080062bc   Section        0  syspara.o(i.GetWorkPara)
    i.GpioInit                               0x080062ec   Section        0  driver.o(i.GpioInit)
    i.GprsAtInit                             0x08006544   Section        0  gprs.o(i.GprsAtInit)
    i.GprsAutoBpr                            0x0800671c   Section        0  gprs.o(i.GprsAutoBpr)
    i.GprsDelay                              0x0800679c   Section        0  gprs.o(i.GprsDelay)
    i.GprsMain                               0x0800681c   Section        0  gprs.o(i.GprsMain)
    i.GprsMonitor                            0x080069d0   Section        0  systask.o(i.GprsMonitor)
    i.GprsParaInit                           0x08006a34   Section        0  gprs.o(i.GprsParaInit)
    i.GprsPowerInit                          0x08006a64   Section        0  gprs.o(i.GprsPowerInit)
    i.GprsSendAtCmd                          0x08006b20   Section        0  gprs.o(i.GprsSendAtCmd)
    i.GprsSwitchAtMode                       0x08006c5c   Section        0  gprs.o(i.GprsSwitchAtMode)
    i.GprsSwitchGprsDataMode                 0x08006ce0   Section        0  gprs.o(i.GprsSwitchGprsDataMode)
    i.GprsUartFixedLenSend                   0x08006d64   Section        0  driver.o(i.GprsUartFixedLenSend)
    i.GprsUartIsRxDone                       0x08006d94   Section        0  driver.o(i.GprsUartIsRxDone)
    i.GprsUartParaInit                       0x08006df0   Section        0  driver.o(i.GprsUartParaInit)
    i.GpsAdd8Hour                            0x08006e0c   Section        0  gps.o(i.GpsAdd8Hour)
    i.GpsAntMonitor                          0x08006ee4   Section        0  systask.o(i.GpsAntMonitor)
    i.GpsCharFloatDataToHex                  0x08006fe8   Section        0  gps.o(i.GpsCharFloatDataToHex)
    i.GpsFrameCheck                          0x080071b8   Section        0  gps.o(i.GpsFrameCheck)
    i.GpsGetDate                             0x080071fe   Section        0  gps.o(i.GpsGetDate)
    i.GpsGetGprmcGpggaInfo                   0x0800727c   Section        0  gps.o(i.GpsGetGprmcGpggaInfo)
    i.GpsGetTime                             0x08007768   Section        0  gps.o(i.GpsGetTime)
    i.GpsMain                                0x080077cc   Section        0  gps.o(i.GpsMain)
    i.GpsMonitor                             0x08007978   Section        0  systask.o(i.GpsMonitor)
    i.GpsUartIsRxDone                        0x08007b0c   Section        0  driver.o(i.GpsUartIsRxDone)
    i.GpsUartParaInit                        0x08007b48   Section        0  driver.o(i.GpsUartParaInit)
    i.GsmCsqCheck                            0x08007b5c   Section        0  gprs.o(i.GsmCsqCheck)
    i.GsmCsqCheckMonitor                     0x08007b8c   Section        0  systask.o(i.GsmCsqCheckMonitor)
    i.GsmDisLcpAndIntoSleep                  0x08007bbc   Section        0  gprs.o(i.GsmDisLcpAndIntoSleep)
    i.GsmTelSmsProcess                       0x08007c28   Section        0  gprs.o(i.GsmTelSmsProcess)
    i.GsmVaryInit                            0x08007d74   Section        0  gprs.o(i.GsmVaryInit)
    i.HardFault_Handler                      0x08007dc0   Section        0  stm32f10x_it.o(i.HardFault_Handler)
    i.HexToAscii                             0x08007dc4   Section        0  selfdef.o(i.HexToAscii)
    i.IWDG_Enable                            0x08007e24   Section        0  stm32f10x_iwdg.o(i.IWDG_Enable)
    i.IWDG_ReloadCounter                     0x08007e34   Section        0  stm32f10x_iwdg.o(i.IWDG_ReloadCounter)
    i.IWDG_SetPrescaler                      0x08007e44   Section        0  stm32f10x_iwdg.o(i.IWDG_SetPrescaler)
    i.IWDG_SetReload                         0x08007e50   Section        0  stm32f10x_iwdg.o(i.IWDG_SetReload)
    i.IWDG_WriteAccessCmd                    0x08007e5c   Section        0  stm32f10x_iwdg.o(i.IWDG_WriteAccessCmd)
    i.IpHeadCheck                            0x08007e68   Section        0  ppp.o(i.IpHeadCheck)
    i.IpTx                                   0x08007ea4   Section        0  ppp.o(i.IpTx)
    i.IsValidAscii                           0x08007f74   Section        0  selfdef.o(i.IsValidAscii)
    i.IsValidChar                            0x08007fb8   Section        0  selfdef.o(i.IsValidChar)
    i.IsValidCharFloatNum                    0x08007ff0   Section        0  selfdef.o(i.IsValidCharFloatNum)
    i.IsValidNum                             0x08008022   Section        0  selfdef.o(i.IsValidNum)
    i.IsValidNumOrChar                       0x0800804e   Section        0  selfdef.o(i.IsValidNumOrChar)
    i.IsValidNumOrCharOrDot                  0x08008092   Section        0  selfdef.o(i.IsValidNumOrCharOrDot)
    i.IwdgInit                               0x080080dc   Section        0  driver.o(i.IwdgInit)
    i.KeyDataSave                            0x08008100   Section        0  systask.o(i.KeyDataSave)
    i.LatLongPositionMonitor                 0x08008124   Section        0  systask.o(i.LatLongPositionMonitor)
    i.LocalCommDelay                         0x080081c4   Section        0  localcomm.o(i.LocalCommDelay)
    i.LocalCommFtpState                      0x0800822c   Section        0  localcomm.o(i.LocalCommFtpState)
    i.LocalCommGetSysState                   0x08008264   Section        0  localcomm.o(i.LocalCommGetSysState)
    i.LocalCommMain                          0x080083f8   Section        0  localcomm.o(i.LocalCommMain)
    i.LocalCommRx                            0x08008400   Section        0  localcomm.o(i.LocalCommRx)
    i.LocalCommTx                            0x080085a4   Section        0  localcomm.o(i.LocalCommTx)
    i.LocalDebug                             0x080085fc   Section        0  driver.o(i.LocalDebug)
    i.LocalUartFixedLenSend                  0x08008624   Section        0  driver.o(i.LocalUartFixedLenSend)
    i.LocalUartIsRxDone                      0x08008654   Section        0  driver.o(i.LocalUartIsRxDone)
    i.LocalUartParaInit                      0x08008690   Section        0  driver.o(i.LocalUartParaInit)
    i.LockRecord                             0x080086a4   Section        0  syspara.o(i.LockRecord)
    i.LockRecordRead                         0x080086dc   Section        0  syspara.o(i.LockRecordRead)
    i.LockRecordWrite                        0x080086f4   Section        0  syspara.o(i.LockRecordWrite)
    i.LongTimeDly                            0x0800870c   Section        0  selfdef.o(i.LongTimeDly)
    i.LsnalLockMonitor                       0x0800872c   Section        0  systask.o(i.LsnalLockMonitor)
    i.MemCmp                                 0x0800880c   Section        0  selfdef.o(i.MemCmp)
    i.MemCpy                                 0x08008830   Section        0  selfdef.o(i.MemCpy)
    i.MemManage_Handler                      0x08008846   Section        0  stm32f10x_it.o(i.MemManage_Handler)
    i.MeterUartIsRxDone                      0x0800884c   Section        0  driver.o(i.MeterUartIsRxDone)
    i.NMI_Handler                            0x08008888   Section        0  stm32f10x_it.o(i.NMI_Handler)
    i.NVIC_Init                              0x0800888c   Section        0  misc.o(i.NVIC_Init)
    i.PVD_IRQHandler                         0x08008900   Section        0  stm32f10x_it.o(i.PVD_IRQHandler)
    i.PWR_BackupAccessCmd                    0x08008918   Section        0  stm32f10x_pwr.o(i.PWR_BackupAccessCmd)
    i.PWR_EnterSTOPMode                      0x08008924   Section        0  stm32f10x_pwr.o(i.PWR_EnterSTOPMode)
    i.PWR_GetFlagStatus                      0x08008964   Section        0  stm32f10x_pwr.o(i.PWR_GetFlagStatus)
    i.PWR_PVDCmd                             0x0800897c   Section        0  stm32f10x_pwr.o(i.PWR_PVDCmd)
    i.PWR_PVDLevelConfig                     0x08008988   Section        0  stm32f10x_pwr.o(i.PWR_PVDLevelConfig)
    i.ParaCorrespond                         0x080089a0   Section        0  syspara.o(i.ParaCorrespond)
    i.ParaRecover                            0x080089d4   Section        0  syspara.o(i.ParaRecover)
    i.PendSV_Handler                         0x080089fc   Section        0  stm32f10x_it.o(i.PendSV_Handler)
    i.PowerMonitor                           0x08008a00   Section        0  systask.o(i.PowerMonitor)
    i.PppInit                                0x08008b14   Section        0  ppp.o(i.PppInit)
    i.PppLcpAck                              0x08008bf8   Section        0  ppp.o(i.PppLcpAck)
    i.PppLcpNak                              0x08008c0c   Section        0  ppp.o(i.PppLcpNak)
    i.PppLcpProcess                          0x08008c34   Section        0  ppp.o(i.PppLcpProcess)
    i.PppLcpReq                              0x08008d40   Section        0  ppp.o(i.PppLcpReq)
    i.PppLcpTerminateAck                     0x08008d54   Section        0  ppp.o(i.PppLcpTerminateAck)
    i.PppMainProcess                         0x08008d68   Section        0  ppp.o(i.PppMainProcess)
    i.PppNcpAck                              0x08008f94   Section        0  ppp.o(i.PppNcpAck)
    i.PppNcpNak                              0x08008fa8   Section        0  ppp.o(i.PppNcpNak)
    i.PppNcpProcess                          0x08008fe4   Section        0  ppp.o(i.PppNcpProcess)
    i.PppNcpReq                              0x08009128   Section        0  ppp.o(i.PppNcpReq)
    i.PppPacketDecode                        0x0800913c   Section        0  ppp.o(i.PppPacketDecode)
    i.PppPacketEncode                        0x080091e4   Section        0  ppp.o(i.PppPacketEncode)
    i.PppPapProcess                          0x080092f0   Section        0  ppp.o(i.PppPapProcess)
    i.PppPapReq                              0x0800930c   Section        0  ppp.o(i.PppPapReq)
    i.PppTx                                  0x08009384   Section        0  ppp.o(i.PppTx)
    i.ProConstructFrameHead                  0x080093e4   Section        0  protocol.o(i.ProConstructFrameHead)
    i.ProConstructFrameTail                  0x08009470   Section        0  protocol.o(i.ProConstructFrameTail)
    i.ProDownAck                             0x08009490   Section        0  protocol.o(i.ProDownAck)
    i.ProDownCommParaAck                     0x080095b4   Section        0  protocol.o(i.ProDownCommParaAck)
    i.ProDownParaQuery                       0x08009654   Section        0  protocol.o(i.ProDownParaQuery)
    i.ProDownSetControlPara                  0x08009684   Section        0  protocol.o(i.ProDownSetControlPara)
    i.ProDownSetPara                         0x08009734   Section        0  protocol.o(i.ProDownSetPara)
    i.ProDownSetWorkPara                     0x08009774   Section        0  protocol.o(i.ProDownSetWorkPara)
    i.ProDownUpgrade                         0x08009794   Section        0  protocol.o(i.ProDownUpgrade)
    i.ProGetFromAccOnBuf                     0x0800984c   Section        0  protocol.o(i.ProGetFromAccOnBuf)
    i.ProLsnalDataInit                       0x080098bc   Section        0  protocol.o(i.ProLsnalDataInit)
    i.ProLsnalDataSave                       0x080098e4   Section        0  protocol.o(i.ProLsnalDataSave)
    i.ProLsnalHeadTailSave                   0x080099c8   Section        0  protocol.o(i.ProLsnalHeadTailSave)
    i.ProLsnalPageSave                       0x080099e8   Section        0  protocol.o(i.ProLsnalPageSave)
    i.ProLsnalSysExit                        0x08009a7c   Section        0  protocol.o(i.ProLsnalSysExit)
    i.ProPacket                              0x08009b2c   Section        0  protocol.o(i.ProPacket)
    i.ProParaInit                            0x08009cd8   Section        0  protocol.o(i.ProParaInit)
    i.ProPeriodTx                            0x08009d60   Section        0  protocol.o(i.ProPeriodTx)
    i.ProProcess                             0x08009f1c   Section        0  protocol.o(i.ProProcess)
    i.ProPutIntoAccOnBuf                     0x0800a068   Section        0  protocol.o(i.ProPutIntoAccOnBuf)
    i.ProPutIntoLsnal                        0x0800a0bc   Section        0  protocol.o(i.ProPutIntoLsnal)
    i.ProUpAccOnOff                          0x0800a194   Section        0  protocol.o(i.ProUpAccOnOff)
    i.ProUpAck                               0x0800a1bc   Section        0  protocol.o(i.ProUpAck)
    i.ProUpAlarm                             0x0800a1f6   Section        0  protocol.o(i.ProUpAlarm)
    i.ProUpAquireCommPara                    0x0800a224   Section        0  protocol.o(i.ProUpAquireCommPara)
    i.ProUpControllerAck                     0x0800a242   Section        0  protocol.o(i.ProUpControllerAck)
    i.ProUpHeartBeat                         0x0800a29a   Section        0  protocol.o(i.ProUpHeartBeat)
    i.ProUpLatLongPosition                   0x0800a2ac   Section        0  protocol.o(i.ProUpLatLongPosition)
    i.ProUpLogin                             0x0800a2c2   Section        0  protocol.o(i.ProUpLogin)
    i.ProUpLsnalData                         0x0800a2e0   Section        0  protocol.o(i.ProUpLsnalData)
    i.ProUpPosition                          0x0800a410   Section        0  protocol.o(i.ProUpPosition)
    i.ProUpSleep                             0x0800a42e   Section        0  protocol.o(i.ProUpSleep)
    i.ProUpUpgradeResult                     0x0800a44c   Section        0  protocol.o(i.ProUpUpgradeResult)
    i.ProUpWorkPara                          0x0800a468   Section        0  protocol.o(i.ProUpWorkPara)
    i.ProUpWorkTimeStatistic                 0x0800a5b8   Section        0  protocol.o(i.ProUpWorkTimeStatistic)
    i.PvdInit                                0x0800a5ce   Section        0  driver.o(i.PvdInit)
    i.QuerySysPrivatePara                    0x0800a628   Section        0  syspara.o(i.QuerySysPrivatePara)
    i.RCC_AHBPeriphClockCmd                  0x0800a7c8   Section        0  stm32f10x_rcc.o(i.RCC_AHBPeriphClockCmd)
    i.RCC_APB1PeriphClockCmd                 0x0800a7e8   Section        0  stm32f10x_rcc.o(i.RCC_APB1PeriphClockCmd)
    i.RCC_APB1PeriphResetCmd                 0x0800a808   Section        0  stm32f10x_rcc.o(i.RCC_APB1PeriphResetCmd)
    i.RCC_APB2PeriphClockCmd                 0x0800a828   Section        0  stm32f10x_rcc.o(i.RCC_APB2PeriphClockCmd)
    i.RCC_APB2PeriphResetCmd                 0x0800a848   Section        0  stm32f10x_rcc.o(i.RCC_APB2PeriphResetCmd)
    i.RCC_BackupResetCmd                     0x0800a868   Section        0  stm32f10x_rcc.o(i.RCC_BackupResetCmd)
    i.RCC_GetClocksFreq                      0x0800a874   Section        0  stm32f10x_rcc.o(i.RCC_GetClocksFreq)
    i.RCC_GetFlagStatus                      0x0800a948   Section        0  stm32f10x_rcc.o(i.RCC_GetFlagStatus)
    i.RCC_GetSYSCLKSource                    0x0800a984   Section        0  stm32f10x_rcc.o(i.RCC_GetSYSCLKSource)
    i.RCC_HSEConfig                          0x0800a994   Section        0  stm32f10x_rcc.o(i.RCC_HSEConfig)
    i.RCC_LSEConfig                          0x0800a9e0   Section        0  stm32f10x_rcc.o(i.RCC_LSEConfig)
    i.RCC_PLLCmd                             0x0800aa14   Section        0  stm32f10x_rcc.o(i.RCC_PLLCmd)
    i.RCC_RTCCLKCmd                          0x0800aa20   Section        0  stm32f10x_rcc.o(i.RCC_RTCCLKCmd)
    i.RCC_RTCCLKConfig                       0x0800aa2c   Section        0  stm32f10x_rcc.o(i.RCC_RTCCLKConfig)
    i.RCC_SYSCLKConfig                       0x0800aa3c   Section        0  stm32f10x_rcc.o(i.RCC_SYSCLKConfig)
    i.RCC_WaitForHSEStartUp                  0x0800aa54   Section        0  stm32f10x_rcc.o(i.RCC_WaitForHSEStartUp)
    i.RTCAlarm_IRQHandler                    0x0800aa8c   Section        0  stm32f10x_it.o(i.RTCAlarm_IRQHandler)
    i.RTC_ClearITPendingBit                  0x0800aaac   Section        0  stm32f10x_rtc.o(i.RTC_ClearITPendingBit)
    i.RTC_EnterConfigMode                    0x0800aabc   Section        0  stm32f10x_rtc.o(i.RTC_EnterConfigMode)
    i.RTC_ExitConfigMode                     0x0800aad0   Section        0  stm32f10x_rtc.o(i.RTC_ExitConfigMode)
    i.RTC_GetCounter                         0x0800aae4   Section        0  stm32f10x_rtc.o(i.RTC_GetCounter)
    i.RTC_GetITStatus                        0x0800aaf8   Section        0  stm32f10x_rtc.o(i.RTC_GetITStatus)
    i.RTC_IRQHandler                         0x0800ab1c   Section        0  stm32f10x_it.o(i.RTC_IRQHandler)
    i.RTC_ITConfig                           0x0800ab74   Section        0  stm32f10x_rtc.o(i.RTC_ITConfig)
    i.RTC_SetAlarm                           0x0800ab94   Section        0  stm32f10x_rtc.o(i.RTC_SetAlarm)
    i.RTC_SetCounter                         0x0800abb0   Section        0  stm32f10x_rtc.o(i.RTC_SetCounter)
    i.RTC_SetPrescaler                       0x0800abcc   Section        0  stm32f10x_rtc.o(i.RTC_SetPrescaler)
    i.RTC_WaitForLastTask                    0x0800abec   Section        0  stm32f10x_rtc.o(i.RTC_WaitForLastTask)
    i.RTC_WaitForSynchro                     0x0800ac00   Section        0  stm32f10x_rtc.o(i.RTC_WaitForSynchro)
    i.RamClear                               0x0800ac20   Section        0  selfdef.o(i.RamClear)
    i.RamZero                                0x0800ac34   Section        0  selfdef.o(i.RamZero)
    i.RingSmsMonitor                         0x0800ac48   Section        0  systask.o(i.RingSmsMonitor)
    i.RtcConfiguration                       0x0800acbc   Section        0  driver.o(i.RtcConfiguration)
    i.RtcGetCalendarTime                     0x0800ad32   Section        0  driver.o(i.RtcGetCalendarTime)
    i.RtcInit                                0x0800ad6c   Section        0  driver.o(i.RtcInit)
    i.RtcSetCalendarTime                     0x0800ada8   Section        0  driver.o(i.RtcSetCalendarTime)
    i.SPI_Cmd                                0x0800ae10   Section        0  stm32f10x_spi.o(i.SPI_Cmd)
    i.SPI_I2S_GetFlagStatus                  0x0800ae28   Section        0  stm32f10x_spi.o(i.SPI_I2S_GetFlagStatus)
    i.SPI_I2S_ReceiveData                    0x0800ae3a   Section        0  stm32f10x_spi.o(i.SPI_I2S_ReceiveData)
    i.SPI_I2S_SendData                       0x0800ae40   Section        0  stm32f10x_spi.o(i.SPI_I2S_SendData)
    i.SPI_Init                               0x0800ae44   Section        0  stm32f10x_spi.o(i.SPI_Init)
    i.SVC_Handler                            0x0800ae80   Section        0  stm32f10x_it.o(i.SVC_Handler)
    i.SetAccStatistic                        0x0800ae84   Section        0  syspara.o(i.SetAccStatistic)
    i.SetApn                                 0x0800aedc   Section        0  syspara.o(i.SetApn)
    i.SetHardwareVersion                     0x0800af40   Section        0  syspara.o(i.SetHardwareVersion)
    i.SetLowVoltageAlarm                     0x0800afa8   Section        0  syspara.o(i.SetLowVoltageAlarm)
    i.SetLsnalLockEnableFlag                 0x0800afdc   Section        0  syspara.o(i.SetLsnalLockEnableFlag)
    i.SetLsnalLockPara                       0x0800b004   Section        0  syspara.o(i.SetLsnalLockPara)
    i.SetMasterIp                            0x0800b040   Section        0  syspara.o(i.SetMasterIp)
    i.SetMeterErrTimer                       0x0800b0a4   Section        0  syspara.o(i.SetMeterErrTimer)
    i.SetOverSpeed                           0x0800b0e0   Section        0  syspara.o(i.SetOverSpeed)
    i.SetPort                                0x0800b118   Section        0  syspara.o(i.SetPort)
    i.SetSlaverIp                            0x0800b15c   Section        0  syspara.o(i.SetSlaverIp)
    i.SetSleepTimer                          0x0800b1c0   Section        0  syspara.o(i.SetSleepTimer)
    i.SetSmsAlarmCenterNum                   0x0800b204   Section        0  syspara.o(i.SetSmsAlarmCenterNum)
    i.SetSysClock                            0x0800b260   Section        0  system_stm32f10x.o(i.SetSysClock)
    SetSysClock                              0x0800b261   Thumb Code     8  system_stm32f10x.o(i.SetSysClock)
    i.SetSysClockTo72                        0x0800b268   Section        0  system_stm32f10x.o(i.SetSysClockTo72)
    SetSysClockTo72                          0x0800b269   Thumb Code   212  system_stm32f10x.o(i.SetSysClockTo72)
    i.SetSysPrivatePara                      0x0800b344   Section        0  syspara.o(i.SetSysPrivatePara)
    i.SetTerminalId                          0x0800b4f4   Section        0  syspara.o(i.SetTerminalId)
    i.SetTerminalPassword                    0x0800b540   Section        0  syspara.o(i.SetTerminalPassword)
    i.SetTerminalSerialNum                   0x0800b588   Section        0  syspara.o(i.SetTerminalSerialNum)
    i.SetWorkPara                            0x0800b5f4   Section        0  syspara.o(i.SetWorkPara)
    i.ShellMonitor                           0x0800b648   Section        0  systask.o(i.ShellMonitor)
    i.SimNumToTermId                         0x0800b72c   Section        0  sim.o(i.SimNumToTermId)
    i.SimSetSimNum                           0x0800b7b0   Section        0  sim.o(i.SimSetSimNum)
    i.SimTermIdToAsciiNum                    0x0800b830   Section        0  sim.o(i.SimTermIdToAsciiNum)
    i.SmsAckPacket                           0x0800b888   Section        0  sms.o(i.SmsAckPacket)
    i.SmsAnalysis                            0x0800b9dc   Section        0  sms.o(i.SmsAnalysis)
    i.SmsDecode7bit                          0x0800bc60   Section        0  sms.o(i.SmsDecode7bit)
    i.SmsDecode8bit                          0x0800bcb0   Section        0  sms.o(i.SmsDecode8bit)
    i.SmsDecodePdu                           0x0800bccc   Section        0  sms.o(i.SmsDecodePdu)
    i.SmsDecodeUcs2                          0x0800be94   Section        0  sms.o(i.SmsDecodeUcs2)
    i.SmsEncode7bit                          0x0800beb4   Section        0  sms.o(i.SmsEncode7bit)
    i.SmsEncode8bit                          0x0800bef6   Section        0  sms.o(i.SmsEncode8bit)
    i.SmsEncodePdu                           0x0800bf14   Section        0  sms.o(i.SmsEncodePdu)
    i.SmsEncodeUcs2                          0x0800bff4   Section        0  sms.o(i.SmsEncodeUcs2)
    i.SmsErrorAnalysis                       0x0800c01c   Section        0  sms.o(i.SmsErrorAnalysis)
    i.SmsLock                                0x0800c170   Section        0  sms.o(i.SmsLock)
    i.SmsNumDecode                           0x0800c1cc   Section        0  sms.o(i.SmsNumDecode)
    i.SmsNumEncode                           0x0800c1fe   Section        0  sms.o(i.SmsNumEncode)
    i.SmsParaLen                             0x0800c252   Section        0  sms.o(i.SmsParaLen)
    i.SmsParaQuery                           0x0800c278   Section        0  sms.o(i.SmsParaQuery)
    i.SmsParaReInit                          0x0800c4c0   Section        0  sms.o(i.SmsParaReInit)
    i.SmsParaSet                             0x0800c4f8   Section        0  sms.o(i.SmsParaSet)
    i.SmsProcessFun                          0x0800c7a4   Section        0  sms.o(i.SmsProcessFun)
    i.SmsProgramUpgrade                      0x0800c87c   Section        0  sms.o(i.SmsProgramUpgrade)
    i.SmsTextDecode                          0x0800c8b4   Section        0  sms.o(i.SmsTextDecode)
    i.SmsTextEncode                          0x0800c904   Section        0  sms.o(i.SmsTextEncode)
    i.SmsTx                                  0x0800c96c   Section        0  sms.o(i.SmsTx)
    i.SmsUnlock                              0x0800ca34   Section        0  sms.o(i.SmsUnlock)
    i.SpeedMonitor                           0x0800ca80   Section        0  systask.o(i.SpeedMonitor)
    i.SpiFramInit                            0x0800cb94   Section        0  fram.o(i.SpiFramInit)
    i.SpiFramPageWrite                       0x0800cc28   Section        0  fram.o(i.SpiFramPageWrite)
    i.SpiFramRdByte                          0x0800ccd4   Section        0  fram.o(i.SpiFramRdByte)
    i.SpiFramRdRdsr                          0x0800cd08   Section        0  fram.o(i.SpiFramRdRdsr)
    i.SpiFramRead                            0x0800cd30   Section        0  fram.o(i.SpiFramRead)
    i.SpiFramWaitFree                        0x0800ce20   Section        0  fram.o(i.SpiFramWaitFree)
    i.SpiFramWrByte                          0x0800ce3c   Section        0  fram.o(i.SpiFramWrByte)
    i.SpiFramWrWren                          0x0800ce74   Section        0  fram.o(i.SpiFramWrWren)
    i.SpiFramWrite                           0x0800ce98   Section        0  fram.o(i.SpiFramWrite)
    i.StrLen                                 0x0800cf16   Section        0  selfdef.o(i.StrLen)
    i.SubMatch                               0x0800cf36   Section        0  selfdef.o(i.SubMatch)
    i.SysBootParaRead                        0x0800cf74   Section        0  syspara.o(i.SysBootParaRead)
    i.SysBootParaWrite                       0x0800cf88   Section        0  syspara.o(i.SysBootParaWrite)
    i.SysClkConfigStop                       0x0800cfac   Section        0  driver.o(i.SysClkConfigStop)
    i.SysCommParaInit                        0x0800cfe4   Section        0  syspara.o(i.SysCommParaInit)
    i.SysDataRead                            0x0800d0f0   Section        0  syspara.o(i.SysDataRead)
    i.SysDataWrite                           0x0800d10c   Section        0  syspara.o(i.SysDataWrite)
    i.SysDelay                               0x0800d128   Section        0  systask.o(i.SysDelay)
    i.SysKeyDataSave                         0x0800d190   Section        0  syspara.o(i.SysKeyDataSave)
    i.SysNoTaskDelay                         0x0800d1c0   Section        0  systask.o(i.SysNoTaskDelay)
    i.SysParaRead                            0x0800d1f8   Section        0  syspara.o(i.SysParaRead)
    i.SysPrivateParaInit                     0x0800d2b0   Section        0  syspara.o(i.SysPrivateParaInit)
    i.SysPrivateParaRead                     0x0800d324   Section        0  syspara.o(i.SysPrivateParaRead)
    i.SysPrivateParaWrite                    0x0800d33c   Section        0  syspara.o(i.SysPrivateParaWrite)
    i.SysReset                               0x0800d364   Section        0  syspara.o(i.SysReset)
    i.SysSerialRead                          0x0800d370   Section        0  syspara.o(i.SysSerialRead)
    i.SysSerialWrite                         0x0800d388   Section        0  syspara.o(i.SysSerialWrite)
    i.SysTaskMain                            0x0800d3a0   Section        0  systask.o(i.SysTaskMain)
    i.SysTickDisable                         0x0800d49c   Section        0  driver.o(i.SysTickDisable)
    i.SysTickEnable                          0x0800d4ae   Section        0  driver.o(i.SysTickEnable)
    i.SysTickInit                            0x0800d4c0   Section        0  driver.o(i.SysTickInit)
    i.SysTick_Handler                        0x0800d520   Section        0  stm32f10x_it.o(i.SysTick_Handler)
    i.SysVaryInit                            0x0800d570   Section        0  syspara.o(i.SysVaryInit)
    i.SysWorkParaInit                        0x0800d658   Section        0  syspara.o(i.SysWorkParaInit)
    i.SysWorkParaRead                        0x0800d6f8   Section        0  syspara.o(i.SysWorkParaRead)
    i.SysWorkParaWrite                       0x0800d710   Section        0  syspara.o(i.SysWorkParaWrite)
    i.SystemInit                             0x0800d728   Section        0  system_stm32f10x.o(i.SystemInit)
    i.TcpProcess                             0x0800d788   Section        0  ppp.o(i.TcpProcess)
    i.TcpUdpHeadCheck                        0x0800d78c   Section        0  ppp.o(i.TcpUdpHeadCheck)
    i.TermEnterSleep                         0x0800d820   Section        0  systask.o(i.TermEnterSleep)
    i.TermOffPwrAndPeriDeInit                0x0800db0c   Section        0  systask.o(i.TermOffPwrAndPeriDeInit)
    i.TermOnPwrAndPeriReInit                 0x0800db70   Section        0  systask.o(i.TermOnPwrAndPeriReInit)
    i.TermReset                              0x0800dc10   Section        0  syspara.o(i.TermReset)
    i.TermReset2                             0x0800dc28   Section        0  syspara.o(i.TermReset2)
    i.TerminalHeart                          0x0800dc40   Section        0  systask.o(i.TerminalHeart)
    i.ThagDebugRead                          0x0800dc80   Section        0  localcomm.o(i.ThagDebugRead)
    i.ThagFtpFun                             0x0800dd34   Section        0  ftp.o(i.ThagFtpFun)
    i.TrailerMonitor                         0x0800ddf4   Section        0  systask.o(i.TrailerMonitor)
    i.U8SumCheck                             0x0800df5c   Section        0  selfdef.o(i.U8SumCheck)
    i.U8ToUint32                             0x0800df78   Section        0  selfdef.o(i.U8ToUint32)
    i.UART4_IRQHandler                       0x0800df90   Section        0  stm32f10x_it.o(i.UART4_IRQHandler)
    i.USART1_IRQHandler                      0x0800dfec   Section        0  stm32f10x_it.o(i.USART1_IRQHandler)
    i.USART2_IRQHandler                      0x0800e038   Section        0  stm32f10x_it.o(i.USART2_IRQHandler)
    i.USART3_IRQHandler                      0x0800e084   Section        0  stm32f10x_it.o(i.USART3_IRQHandler)
    i.USART_Cmd                              0x0800e104   Section        0  stm32f10x_usart.o(i.USART_Cmd)
    i.USART_DeInit                           0x0800e11c   Section        0  stm32f10x_usart.o(i.USART_DeInit)
    i.USART_GetFlagStatus                    0x0800e1b8   Section        0  stm32f10x_usart.o(i.USART_GetFlagStatus)
    i.USART_GetITStatus                      0x0800e1d2   Section        0  stm32f10x_usart.o(i.USART_GetITStatus)
    i.USART_ITConfig                         0x0800e226   Section        0  stm32f10x_usart.o(i.USART_ITConfig)
    i.USART_Init                             0x0800e270   Section        0  stm32f10x_usart.o(i.USART_Init)
    i.USART_ReceiveData                      0x0800e348   Section        0  stm32f10x_usart.o(i.USART_ReceiveData)
    i.USART_SendData                         0x0800e352   Section        0  stm32f10x_usart.o(i.USART_SendData)
    i.USB_LP_CAN1_RX0_IRQHandler             0x0800e35a   Section        0  stm32f10x_it.o(i.USB_LP_CAN1_RX0_IRQHandler)
    i.UdpIpPortInit                          0x0800e364   Section        0  ppp.o(i.UdpIpPortInit)
    i.UdpProcess                             0x0800e3a4   Section        0  ppp.o(i.UdpProcess)
    i.UdpTx                                  0x0800e3b4   Section        0  ppp.o(i.UdpTx)
    i.Uint32ToU8                             0x0800e438   Section        0  selfdef.o(i.Uint32ToU8)
    i.UnLockRecord                           0x0800e448   Section        0  syspara.o(i.UnLockRecord)
    i.UsageFault_Handler                     0x0800e45c   Section        0  stm32f10x_it.o(i.UsageFault_Handler)
    i.UsartGprsDeInit                        0x0800e460   Section        0  driver.o(i.UsartGprsDeInit)
    i.UsartInit                              0x0800e49c   Section        0  driver.o(i.UsartInit)
    i.VoltageMonitor                         0x0800e69c   Section        0  systask.o(i.VoltageMonitor)
    i.XorCheck                               0x0800e7c4   Section        0  selfdef.o(i.XorCheck)
    i._is_digit                              0x0800e7de   Section        0  __printf_wp.o(i._is_digit)
    i.main                                   0x0800e7ec   Section        0  main.o(i.main)
    .constdata                               0x0800e8c8   Section      220  syspara.o(.constdata)
    .constdata                               0x0800e9a4   Section      512  selfdef.o(.constdata)
    .constdata                               0x0800eba4   Section       12  gprs.o(.constdata)
    .constdata                               0x0800ebb0   Section       40  _printf_hex_int.o(.constdata)
    uc_hextab                                0x0800ebb0   Data          20  _printf_hex_int.o(.constdata)
    lc_hextab                                0x0800ebc4   Data          20  _printf_hex_int.o(.constdata)
    .constdata                               0x0800ebd8   Section       17  __printf_flags_ss_wp.o(.constdata)
    maptable                                 0x0800ebd8   Data          17  __printf_flags_ss_wp.o(.constdata)
    .constdata                               0x0800ebe9   Section       12  _monlen.o(.constdata)
    .data                                    0x20000000   Section       20  stm32f10x_rcc.o(.data)
    APBAHBPrescTable                         0x20000000   Data          16  stm32f10x_rcc.o(.data)
    ADCPrescTable                            0x20000010   Data           4  stm32f10x_rcc.o(.data)
    .data                                    0x20000014   Section        1  stm32f10x_it.o(.data)
    s_conv_counter                           0x20000014   Data           1  stm32f10x_it.o(.data)
    .data                                    0x20000016   Section        8  driver.o(.data)
    sys_tick_pre_val                         0x20000016   Data           2  driver.o(.data)
    sys_tick_cur_val                         0x20000018   Data           2  driver.o(.data)
    .data                                    0x2000001e   Section        4  gps.o(.data)
    sys_rtc_pre_val                          0x2000001e   Data           2  gps.o(.data)
    sys_rtc_cur_val                          0x20000020   Data           2  gps.o(.data)
    .data                                    0x20000024   Section      564  gprs.o(.data)
    .data                                    0x20000258   Section        2  ppp.o(.data)
    tx_counter                               0x20000258   Data           2  ppp.o(.data)
    .data                                    0x2000025a   Section        2  protocol.o(.data)
    last_sec                                 0x2000025a   Data           2  protocol.o(.data)
    .data                                    0x2000025c   Section       32  systask.o(.data)
    s_pwr_down_sec_counter                   0x2000025c   Data           2  systask.o(.data)
    s_pwr_on_sec_counter                     0x2000025e   Data           2  systask.o(.data)
    shell_off_sec_counter                    0x20000260   Data           1  systask.o(.data)
    shell_on_sec_counter                     0x20000261   Data           1  systask.o(.data)
    ant_off_sec_counter                      0x20000262   Data           1  systask.o(.data)
    ant_on_sec_counter                       0x20000263   Data           1  systask.o(.data)
    s_sec_counter_1                          0x20000264   Data           1  systask.o(.data)
    s_sec_counter_2                          0x20000266   Data           2  systask.o(.data)
    s_over_speed_sec_counter                 0x20000268   Data           2  systask.o(.data)
    s_trailer_sec_counter                    0x2000026a   Data           2  systask.o(.data)
    s_low_voltage_sec_counter                0x2000026c   Data           2  systask.o(.data)
    s_high_voltage_sec_counter               0x2000026e   Data           2  systask.o(.data)
    s_counter                                0x20000270   Data           1  systask.o(.data)
    lsnal_counter                            0x20000272   Data           2  systask.o(.data)
    sec_counter                              0x20000274   Data           2  systask.o(.data)
    sys_rtc_pre_val                          0x20000276   Data           2  systask.o(.data)
    sys_rtc_cur_val                          0x20000278   Data           2  systask.o(.data)
    sec_total                                0x2000027a   Data           2  systask.o(.data)
    .data                                    0x2000027c   Section        6  can.o(.data)
    center_tx_counter                        0x2000027c   Data           1  can.o(.data)
    controller_para_tx_counter               0x2000027d   Data           1  can.o(.data)
    s_sec_counter_1                          0x2000027e   Data           1  can.o(.data)
    s_sec_counter_2                          0x20000280   Data           2  can.o(.data)
    .bss                                     0x20000284   Section       16  stm32f10x_it.o(.bss)
    adc_val                                  0x20000284   Data          16  stm32f10x_it.o(.bss)
    .bss                                     0x20000294   Section     4912  driver.o(.bss)
    .bss                                     0x200015c4   Section     1155  syspara.o(.bss)
    .bss                                     0x20001a47   Section      328  gps.o(.bss)
    .bss                                     0x20001b90   Section       42  gprs.o(.bss)
    .bss                                     0x20001bbc   Section      100  ppp.o(.bss)
    .bss                                     0x20001c20   Section     3470  protocol.o(.bss)
    .bss                                     0x200029b0   Section      732  ftp.o(.bss)
    .bss                                     0x20002c8c   Section       67  sms.o(.bss)
    .bss                                     0x20002ccf   Section      204  can.o(.bss)
    .bss                                     0x20002d9c   Section       44  localtime.o(.bss)
    _tms                                     0x20002d9c   Data          44  localtime.o(.bss)
    .bss                                     0x20002dc8   Section       96  libspace.o(.bss)
    HEAP                                     0x20002e28   Section     4096  startup_stm32f10x_hd.o(HEAP)
    Heap_Mem                                 0x20002e28   Data        4096  startup_stm32f10x_hd.o(HEAP)
    STACK                                    0x20003e28   Section    32768  startup_stm32f10x_hd.o(STACK)
    Stack_Mem                                0x20003e28   Data       32768  startup_stm32f10x_hd.o(STACK)
    __initial_sp                             0x2000be28   Data           0  startup_stm32f10x_hd.o(STACK)

    Global Symbols

    Symbol Name                              Value     Ov Type        Size  Object(Section)

    BuildAttributes$$THM_ISAv4$P$D$K$B$S$PE$A:L22UL41UL21$X:L11$S22US41US21$IEEE1$IW$USESV6$~STKCKD$USESV7$~SHL$OSPACE$ROPI$EBA8$UX$STANDARDLIB$REQ8$PRES8$EABIv2 0x00000000   Number         0  anon$$obj.o ABSOLUTE
    __ARM_use_no_argv                        0x00000000   Number         0  main.o ABSOLUTE
    _printf_flags                            0x00000000   Number         0  printf_stubs.o ABSOLUTE
    _printf_return_value                     0x00000000   Number         0  printf_stubs.o ABSOLUTE
    _printf_sizespec                         0x00000000   Number         0  printf_stubs.o ABSOLUTE
    _printf_widthprec                        0x00000000   Number         0  printf_stubs.o ABSOLUTE
    __ARM_exceptions_init                     - Undefined Weak Reference
    __alloca_initialize                       - Undefined Weak Reference
    __cpp_initialize__aeabi_                  - Undefined Weak Reference
    __cxa_finalize                            - Undefined Weak Reference
    __rt_locale                               - Undefined Weak Reference
    __sigvec_lookup                           - Undefined Weak Reference
    _atexit_init                              - Undefined Weak Reference
    _call_atexit_fns                          - Undefined Weak Reference
    _clock_init                               - Undefined Weak Reference
    _fp_trap_init                             - Undefined Weak Reference
    _fp_trap_shutdown                         - Undefined Weak Reference
    _get_lc_collate                           - Undefined Weak Reference
    _get_lc_ctype                             - Undefined Weak Reference
    _get_lc_monetary                          - Undefined Weak Reference
    _get_lc_numeric                           - Undefined Weak Reference
    _get_lc_time                              - Undefined Weak Reference
    _getenv_init                              - Undefined Weak Reference
    _handle_redirection                       - Undefined Weak Reference
    _init_alloc                               - Undefined Weak Reference
    _init_user_alloc                          - Undefined Weak Reference
    _initio                                   - Undefined Weak Reference
    _printf_mbtowc                            - Undefined Weak Reference
    _printf_truncate_signed                   - Undefined Weak Reference
    _printf_truncate_unsigned                 - Undefined Weak Reference
    _rand_init                                - Undefined Weak Reference
    _signal_finish                            - Undefined Weak Reference
    _signal_init                              - Undefined Weak Reference
    _terminate_alloc                          - Undefined Weak Reference
    _terminate_user_alloc                     - Undefined Weak Reference
    _terminateio                              - Undefined Weak Reference
    __Vectors_Size                           0x00000130   Number         0  startup_stm32f10x_hd.o ABSOLUTE
    __Vectors                                0x08002000   Data           4  startup_stm32f10x_hd.o(RESET)
    __Vectors_End                            0x08002130   Data           0  startup_stm32f10x_hd.o(RESET)
    __main                                   0x08002131   Thumb Code     8  __main.o(!!!main)
    __scatterload                            0x08002139   Thumb Code     0  __scatter.o(!!!scatter)
    __scatterload_rt2                        0x08002139   Thumb Code    44  __scatter.o(!!!scatter)
    __scatterload_rt2_thumb_only             0x08002139   Thumb Code     0  __scatter.o(!!!scatter)
    __scatterload_null                       0x08002147   Thumb Code     0  __scatter.o(!!!scatter)
    __decompress                             0x0800216d   Thumb Code    90  __dczerorl2.o(!!dczerorl2)
    __decompress1                            0x0800216d   Thumb Code     0  __dczerorl2.o(!!dczerorl2)
    __scatterload_zeroinit                   0x080021c9   Thumb Code    28  __scatter_zi.o(!!handler_zi)
    _printf_ll                               0x080021e5   Thumb Code     0  _printf_ll.o(.ARM.Collect$$_printf_percent$$00000007)
    _printf_percent                          0x080021e5   Thumb Code     0  _printf_percent.o(.ARM.Collect$$_printf_percent$$00000000)
    _printf_d                                0x080021ef   Thumb Code     0  _printf_d.o(.ARM.Collect$$_printf_percent$$00000009)
    _printf_u                                0x080021f5   Thumb Code     0  _printf_u.o(.ARM.Collect$$_printf_percent$$0000000A)
    _printf_x                                0x080021fb   Thumb Code     0  _printf_x.o(.ARM.Collect$$_printf_percent$$0000000C)
    _printf_llu                              0x08002201   Thumb Code     0  _printf_llu.o(.ARM.Collect$$_printf_percent$$0000000F)
    _printf_c                                0x08002207   Thumb Code     0  _printf_c.o(.ARM.Collect$$_printf_percent$$00000013)
    _printf_s                                0x0800220d   Thumb Code     0  _printf_s.o(.ARM.Collect$$_printf_percent$$00000014)
    _printf_percent_end                      0x08002213   Thumb Code     0  _printf_percent_end.o(.ARM.Collect$$_printf_percent$$00000017)
    __rt_lib_init                            0x08002217   Thumb Code     0  libinit.o(.ARM.Collect$$libinit$$00000000)
    __rt_lib_init_alloca_1                   0x08002219   Thumb Code     0  libinit2.o(.ARM.Collect$$libinit$$0000002C)
    __rt_lib_init_argv_1                     0x08002219   Thumb Code     0  libinit2.o(.ARM.Collect$$libinit$$0000002A)
    __rt_lib_init_atexit_1                   0x08002219   Thumb Code     0  libinit2.o(.ARM.Collect$$libinit$$00000019)
    __rt_lib_init_clock_1                    0x08002219   Thumb Code     0  libinit2.o(.ARM.Collect$$libinit$$0000001F)
    __rt_lib_init_cpp_1                      0x08002219   Thumb Code     0  libinit2.o(.ARM.Collect$$libinit$$00000030)
    __rt_lib_init_exceptions_1               0x08002219   Thumb Code     0  libinit2.o(.ARM.Collect$$libinit$$0000002E)
    __rt_lib_init_fp_1                       0x08002219   Thumb Code     0  libinit2.o(.ARM.Collect$$libinit$$00000002)
    __rt_lib_init_fp_trap_1                  0x08002219   Thumb Code     0  libinit2.o(.ARM.Collect$$libinit$$0000001D)
    __rt_lib_init_getenv_1                   0x08002219   Thumb Code     0  libinit2.o(.ARM.Collect$$libinit$$00000021)
    __rt_lib_init_heap_1                     0x08002219   Thumb Code     0  libinit2.o(.ARM.Collect$$libinit$$00000008)
    __rt_lib_init_lc_collate_1               0x08002219   Thumb Code     0  libinit2.o(.ARM.Collect$$libinit$$0000000F)
    __rt_lib_init_lc_ctype_1                 0x08002219   Thumb Code     0  libinit2.o(.ARM.Collect$$libinit$$00000011)
    __rt_lib_init_lc_monetary_1              0x08002219   Thumb Code     0  libinit2.o(.ARM.Collect$$libinit$$00000013)
    __rt_lib_init_lc_numeric_1               0x08002219   Thumb Code     0  libinit2.o(.ARM.Collect$$libinit$$00000015)
    __rt_lib_init_lc_time_1                  0x08002219   Thumb Code     0  libinit2.o(.ARM.Collect$$libinit$$00000017)
    __rt_lib_init_rand_1                     0x08002219   Thumb Code     0  libinit2.o(.ARM.Collect$$libinit$$0000000C)
    __rt_lib_init_return                     0x08002219   Thumb Code     0  libinit2.o(.ARM.Collect$$libinit$$00000031)
    __rt_lib_init_signal_1                   0x08002219   Thumb Code     0  libinit2.o(.ARM.Collect$$libinit$$0000001B)
    __rt_lib_init_stdio_1                    0x08002219   Thumb Code     0  libinit2.o(.ARM.Collect$$libinit$$00000023)
    __rt_lib_init_user_alloc_1               0x08002219   Thumb Code     0  libinit2.o(.ARM.Collect$$libinit$$0000000A)
    __rt_lib_shutdown                        0x0800221b   Thumb Code     0  libshutdown.o(.ARM.Collect$$libshutdown$$00000000)
    __rt_lib_shutdown_fp_trap_1              0x0800221d   Thumb Code     0  libshutdown2.o(.ARM.Collect$$libshutdown$$00000006)
    __rt_lib_shutdown_heap_1                 0x0800221d   Thumb Code     0  libshutdown2.o(.ARM.Collect$$libshutdown$$0000000E)
    __rt_lib_shutdown_return                 0x0800221d   Thumb Code     0  libshutdown2.o(.ARM.Collect$$libshutdown$$0000000F)
    __rt_lib_shutdown_signal_1               0x0800221d   Thumb Code     0  libshutdown2.o(.ARM.Collect$$libshutdown$$00000009)
    __rt_lib_shutdown_stdio_1                0x0800221d   Thumb Code     0  libshutdown2.o(.ARM.Collect$$libshutdown$$00000003)
    __rt_lib_shutdown_user_alloc_1           0x0800221d   Thumb Code     0  libshutdown2.o(.ARM.Collect$$libshutdown$$0000000B)
    __rt_entry                               0x0800221f   Thumb Code     0  rtentry.o(.ARM.Collect$$rtentry$$00000000)
    __rt_entry_presh_1                       0x0800221f   Thumb Code     0  rtentry2.o(.ARM.Collect$$rtentry$$00000002)
    __rt_entry_sh                            0x0800221f   Thumb Code     0  rtentry4.o(.ARM.Collect$$rtentry$$00000004)
    __rt_entry_li                            0x08002225   Thumb Code     0  rtentry2.o(.ARM.Collect$$rtentry$$0000000A)
    __rt_entry_postsh_1                      0x08002225   Thumb Code     0  rtentry2.o(.ARM.Collect$$rtentry$$00000009)
    __rt_entry_main                          0x08002229   Thumb Code     0  rtentry2.o(.ARM.Collect$$rtentry$$0000000D)
    __rt_entry_postli_1                      0x08002229   Thumb Code     0  rtentry2.o(.ARM.Collect$$rtentry$$0000000C)
    __rt_exit                                0x08002231   Thumb Code     0  rtexit.o(.ARM.Collect$$rtexit$$00000000)
    __rt_exit_ls                             0x08002233   Thumb Code     0  rtexit2.o(.ARM.Collect$$rtexit$$00000003)
    __rt_exit_prels_1                        0x08002233   Thumb Code     0  rtexit2.o(.ARM.Collect$$rtexit$$00000002)
    __rt_exit_exit                           0x08002237   Thumb Code     0  rtexit2.o(.ARM.Collect$$rtexit$$00000004)
    Reset_Handler                            0x0800223d   Thumb Code     8  startup_stm32f10x_hd.o(.text)
    ADC1_2_IRQHandler                        0x08002257   Thumb Code     0  startup_stm32f10x_hd.o(.text)
    ADC3_IRQHandler                          0x08002257   Thumb Code     0  startup_stm32f10x_hd.o(.text)
    CAN1_RX1_IRQHandler                      0x08002257   Thumb Code     0  startup_stm32f10x_hd.o(.text)
    CAN1_SCE_IRQHandler                      0x08002257   Thumb Code     0  startup_stm32f10x_hd.o(.text)
    DMA1_Channel2_IRQHandler                 0x08002257   Thumb Code     0  startup_stm32f10x_hd.o(.text)
    DMA1_Channel3_IRQHandler                 0x08002257   Thumb Code     0  startup_stm32f10x_hd.o(.text)
    DMA1_Channel4_IRQHandler                 0x08002257   Thumb Code     0  startup_stm32f10x_hd.o(.text)
    DMA1_Channel5_IRQHandler                 0x08002257   Thumb Code     0  startup_stm32f10x_hd.o(.text)
    DMA1_Channel6_IRQHandler                 0x08002257   Thumb Code     0  startup_stm32f10x_hd.o(.text)
    DMA1_Channel7_IRQHandler                 0x08002257   Thumb Code     0  startup_stm32f10x_hd.o(.text)
    DMA2_Channel1_IRQHandler                 0x08002257   Thumb Code     0  startup_stm32f10x_hd.o(.text)
    DMA2_Channel2_IRQHandler                 0x08002257   Thumb Code     0  startup_stm32f10x_hd.o(.text)
    DMA2_Channel3_IRQHandler                 0x08002257   Thumb Code     0  startup_stm32f10x_hd.o(.text)
    DMA2_Channel4_5_IRQHandler               0x08002257   Thumb Code     0  startup_stm32f10x_hd.o(.text)
    EXTI0_IRQHandler                         0x08002257   Thumb Code     0  startup_stm32f10x_hd.o(.text)
    EXTI1_IRQHandler                         0x08002257   Thumb Code     0  startup_stm32f10x_hd.o(.text)
    EXTI2_IRQHandler                         0x08002257   Thumb Code     0  startup_stm32f10x_hd.o(.text)
    EXTI3_IRQHandler                         0x08002257   Thumb Code     0  startup_stm32f10x_hd.o(.text)
    EXTI4_IRQHandler                         0x08002257   Thumb Code     0  startup_stm32f10x_hd.o(.text)
    FLASH_IRQHandler                         0x08002257   Thumb Code     0  startup_stm32f10x_hd.o(.text)
    FSMC_IRQHandler                          0x08002257   Thumb Code     0  startup_stm32f10x_hd.o(.text)
    I2C1_ER_IRQHandler                       0x08002257   Thumb Code     0  startup_stm32f10x_hd.o(.text)
    I2C1_EV_IRQHandler                       0x08002257   Thumb Code     0  startup_stm32f10x_hd.o(.text)
    I2C2_ER_IRQHandler                       0x08002257   Thumb Code     0  startup_stm32f10x_hd.o(.text)
    I2C2_EV_IRQHandler                       0x08002257   Thumb Code     0  startup_stm32f10x_hd.o(.text)
    RCC_IRQHandler                           0x08002257   Thumb Code     0  startup_stm32f10x_hd.o(.text)
    SDIO_IRQHandler                          0x08002257   Thumb Code     0  startup_stm32f10x_hd.o(.text)
    SPI1_IRQHandler                          0x08002257   Thumb Code     0  startup_stm32f10x_hd.o(.text)
    SPI2_IRQHandler                          0x08002257   Thumb Code     0  startup_stm32f10x_hd.o(.text)
    SPI3_IRQHandler                          0x08002257   Thumb Code     0  startup_stm32f10x_hd.o(.text)
    TAMPER_IRQHandler                        0x08002257   Thumb Code     0  startup_stm32f10x_hd.o(.text)
    TIM1_BRK_IRQHandler                      0x08002257   Thumb Code     0  startup_stm32f10x_hd.o(.text)
    TIM1_CC_IRQHandler                       0x08002257   Thumb Code     0  startup_stm32f10x_hd.o(.text)
    TIM1_TRG_COM_IRQHandler                  0x08002257   Thumb Code     0  startup_stm32f10x_hd.o(.text)
    TIM1_UP_IRQHandler                       0x08002257   Thumb Code     0  startup_stm32f10x_hd.o(.text)
    TIM2_IRQHandler                          0x08002257   Thumb Code     0  startup_stm32f10x_hd.o(.text)
    TIM3_IRQHandler                          0x08002257   Thumb Code     0  startup_stm32f10x_hd.o(.text)
    TIM4_IRQHandler                          0x08002257   Thumb Code     0  startup_stm32f10x_hd.o(.text)
    TIM5_IRQHandler                          0x08002257   Thumb Code     0  startup_stm32f10x_hd.o(.text)
    TIM6_IRQHandler                          0x08002257   Thumb Code     0  startup_stm32f10x_hd.o(.text)
    TIM7_IRQHandler                          0x08002257   Thumb Code     0  startup_stm32f10x_hd.o(.text)
    TIM8_BRK_IRQHandler                      0x08002257   Thumb Code     0  startup_stm32f10x_hd.o(.text)
    TIM8_CC_IRQHandler                       0x08002257   Thumb Code     0  startup_stm32f10x_hd.o(.text)
    TIM8_TRG_COM_IRQHandler                  0x08002257   Thumb Code     0  startup_stm32f10x_hd.o(.text)
    TIM8_UP_IRQHandler                       0x08002257   Thumb Code     0  startup_stm32f10x_hd.o(.text)
    UART5_IRQHandler                         0x08002257   Thumb Code     0  startup_stm32f10x_hd.o(.text)
    USBWakeUp_IRQHandler                     0x08002257   Thumb Code     0  startup_stm32f10x_hd.o(.text)
    USB_HP_CAN1_TX_IRQHandler                0x08002257   Thumb Code     0  startup_stm32f10x_hd.o(.text)
    WWDG_IRQHandler                          0x08002257   Thumb Code     0  startup_stm32f10x_hd.o(.text)
    __user_initial_stackheap                 0x08002259   Thumb Code     0  startup_stm32f10x_hd.o(.text)
    __2sprintf                               0x0800227d   Thumb Code    38  __2sprintf.o(.text)
    _printf_pre_padding                      0x080022a9   Thumb Code    46  _printf_pad.o(.text)
    _printf_post_padding                     0x080022d7   Thumb Code    36  _printf_pad.o(.text)
    _printf_str                              0x080022fb   Thumb Code    82  _printf_str.o(.text)
    _printf_int_dec                          0x0800234d   Thumb Code   102  _printf_dec.o(.text)
    _printf_longlong_dec                     0x080023c5   Thumb Code   104  _printf_longlong_dec.o(.text)
    _printf_int_hex                          0x0800243d   Thumb Code    88  _printf_hex_int.o(.text)
    _printf_longlong_hex                     0x0800243d   Thumb Code     0  _printf_hex_int.o(.text)
    __printf                                 0x08002499   Thumb Code   390  __printf_flags_ss_wp.o(.text)
    __aeabi_memcpy                           0x08002625   Thumb Code     0  rt_memcpy_v6.o(.text)
    __rt_memcpy                              0x08002625   Thumb Code   138  rt_memcpy_v6.o(.text)
    _memcpy_lastbytes                        0x0800268b   Thumb Code     0  rt_memcpy_v6.o(.text)
    __aeabi_memcpy4                          0x080026af   Thumb Code     0  rt_memcpy_w.o(.text)
    __aeabi_memcpy8                          0x080026af   Thumb Code     0  rt_memcpy_w.o(.text)
    __rt_memcpy_w                            0x080026af   Thumb Code   100  rt_memcpy_w.o(.text)
    _memcpy_lastbytes_aligned                0x080026f7   Thumb Code     0  rt_memcpy_w.o(.text)
    localtime                                0x08002715   Thumb Code     6  localtime.o(.text)
    mktime                                   0x08002757   Thumb Code   358  mktime.o(.text)
    __use_two_region_memory                  0x080028c5   Thumb Code     2  heapauxi.o(.text)
    __rt_heap_escrow$2region                 0x080028c7   Thumb Code     2  heapauxi.o(.text)
    __rt_heap_expand$2region                 0x080028c9   Thumb Code     2  heapauxi.o(.text)
    _ll_udiv10                               0x080028cb   Thumb Code   138  lludiv10.o(.text)
    _printf_int_common                       0x08002955   Thumb Code   184  _printf_intcommon.o(.text)
    _printf_char_common                      0x08002a17   Thumb Code    32  _printf_char_common.o(.text)
    _sputc                                   0x08002a3d   Thumb Code    10  _sputc.o(.text)
    _printf_cs_common                        0x08002a47   Thumb Code    20  _printf_char.o(.text)
    _printf_char                             0x08002a5b   Thumb Code    16  _printf_char.o(.text)
    _printf_string                           0x08002a6b   Thumb Code     8  _printf_char.o(.text)
    _localtime_r                             0x08002a75   Thumb Code   158  localtime_internal.o(.text)
    _n$localtime_r                           0x08002a75   Thumb Code     0  localtime_internal.o(.text)
    __aeabi_memclr4                          0x08002b19   Thumb Code     0  rt_memclr_w.o(.text)
    __aeabi_memclr8                          0x08002b19   Thumb Code     0  rt_memclr_w.o(.text)
    __rt_memclr_w                            0x08002b19   Thumb Code    78  rt_memclr_w.o(.text)
    _memset_w                                0x08002b1d   Thumb Code     0  rt_memclr_w.o(.text)
    __user_setup_stackheap                   0x08002b67   Thumb Code    74  sys_stackheap_outer.o(.text)
    exit                                     0x08002bb1   Thumb Code    12  exit.o(.text)
    __user_libspace                          0x08002bbd   Thumb Code     8  libspace.o(.text)
    __user_perproc_libspace                  0x08002bbd   Thumb Code     0  libspace.o(.text)
    __user_perthread_libspace                0x08002bbd   Thumb Code     0  libspace.o(.text)
    _sys_exit                                0x08002bc5   Thumb Code     8  sys_exit.o(.text)
    __I$use$semihosting                      0x08002bd1   Thumb Code     0  use_no_semi.o(.text)
    __use_no_semihosting_swi                 0x08002bd1   Thumb Code     2  use_no_semi.o(.text)
    ADC_Cmd                                  0x08002bd3   Thumb Code    22  stm32f10x_adc.o(i.ADC_Cmd)
    __semihosting_library_function           0x08002bd3   Thumb Code     0  indicate_semi.o(.text)
    ADC_DMACmd                               0x08002be9   Thumb Code    22  stm32f10x_adc.o(i.ADC_DMACmd)
    ADC_GetCalibrationStatus                 0x08002bff   Thumb Code    20  stm32f10x_adc.o(i.ADC_GetCalibrationStatus)
    ADC_GetResetCalibrationStatus            0x08002c13   Thumb Code    20  stm32f10x_adc.o(i.ADC_GetResetCalibrationStatus)
    ADC_Init                                 0x08002c29   Thumb Code    70  stm32f10x_adc.o(i.ADC_Init)
    ADC_RegularChannelConfig                 0x08002c79   Thumb Code   184  stm32f10x_adc.o(i.ADC_RegularChannelConfig)
    ADC_ResetCalibration                     0x08002d31   Thumb Code    10  stm32f10x_adc.o(i.ADC_ResetCalibration)
    ADC_SoftwareStartConvCmd                 0x08002d3b   Thumb Code    22  stm32f10x_adc.o(i.ADC_SoftwareStartConvCmd)
    ADC_StartCalibration                     0x08002d51   Thumb Code    10  stm32f10x_adc.o(i.ADC_StartCalibration)
    AccMonitor                               0x08002d5d   Thumb Code   426  systask.o(i.AccMonitor)
    AccOnOffDataAppend                       0x08002f39   Thumb Code   228  systask.o(i.AccOnOffDataAppend)
    AccOnOffDataInit                         0x08003021   Thumb Code    62  systask.o(i.AccOnOffDataInit)
    AccOnOffStatisticDataCheck               0x08003065   Thumb Code    74  systask.o(i.AccOnOffStatisticDataCheck)
    AccOnOffStatisticDataSave                0x080030b5   Thumb Code    62  systask.o(i.AccOnOffStatisticDataSave)
    AdcInit                                  0x08003121   Thumb Code   176  driver.o(i.AdcInit)
    AsciiToHex                               0x080031d9   Thumb Code    48  selfdef.o(i.AsciiToHex)
    AsciiToHexVal                            0x08003209   Thumb Code   106  selfdef.o(i.AsciiToHexVal)
    AtAdtFun                                 0x08003275   Thumb Code    20  gprs.o(i.AtAdtFun)
    AtAthFun                                 0x0800328d   Thumb Code    20  gprs.o(i.AtAthFun)
    AtCgatt0Fun                              0x080032a5   Thumb Code    20  gprs.o(i.AtCgatt0Fun)
    AtCgatt1Fun                              0x080032bd   Thumb Code    20  gprs.o(i.AtCgatt1Fun)
    AtCgattFun                               0x080032d5   Thumb Code    70  gprs.o(i.AtCgattFun)
    AtCgdcontFun                             0x0800332d   Thumb Code    20  gprs.o(i.AtCgdcontFun)
    AtCimiFun                                0x08003345   Thumb Code   290  gprs.o(i.AtCimiFun)
    AtCmdModeFun                             0x080034ad   Thumb Code    20  gprs.o(i.AtCmdModeFun)
    AtCmgdFun                                0x080034c5   Thumb Code    20  gprs.o(i.AtCmgdFun)
    AtCmgfFun                                0x080034dd   Thumb Code    20  gprs.o(i.AtCmgfFun)
    AtCmglFun                                0x080034f5   Thumb Code    68  gprs.o(i.AtCmglFun)
    AtCmgsFun                                0x08003545   Thumb Code    20  gprs.o(i.AtCmgsFun)
    AtCnumFun                                0x0800355d   Thumb Code   154  gprs.o(i.AtCnumFun)
    AtCpbsOnFun                              0x0800360d   Thumb Code    20  gprs.o(i.AtCpbsOnFun)
    AtCpbwFun                                0x08003625   Thumb Code    20  gprs.o(i.AtCpbwFun)
    AtCregFun                                0x0800363d   Thumb Code    80  gprs.o(i.AtCregFun)
    AtCsqFun                                 0x08003699   Thumb Code   142  gprs.o(i.AtCsqFun)
    AtE0Fun                                  0x08003739   Thumb Code    20  gprs.o(i.AtE0Fun)
    AtFun                                    0x08003751   Thumb Code    20  gprs.o(i.AtFun)
    AtGprsDataModeFun                        0x08003769   Thumb Code    20  gprs.o(i.AtGprsDataModeFun)
    AtImeiFun                                0x08003781   Thumb Code    90  gprs.o(i.AtImeiFun)
    AtIprFun                                 0x080037ed   Thumb Code    20  gprs.o(i.AtIprFun)
    AtNullFun                                0x08003805   Thumb Code    20  gprs.o(i.AtNullFun)
    AtSleepFun                               0x0800381d   Thumb Code    20  gprs.o(i.AtSleepFun)
    AtWakeFun                                0x08003835   Thumb Code    20  gprs.o(i.AtWakeFun)
    BKP_DeInit                               0x0800384d   Thumb Code    16  stm32f10x_bkp.o(i.BKP_DeInit)
    BusFault_Handler                         0x0800385d   Thumb Code     4  stm32f10x_it.o(i.BusFault_Handler)
    CAN_DeInit                               0x08003861   Thumb Code    50  stm32f10x_can.o(i.CAN_DeInit)
    CAN_FilterInit                           0x08003899   Thumb Code   258  stm32f10x_can.o(i.CAN_FilterInit)
    CAN_ITConfig                             0x080039a1   Thumb Code    18  stm32f10x_can.o(i.CAN_ITConfig)
    CAN_Init                                 0x080039b3   Thumb Code   276  stm32f10x_can.o(i.CAN_Init)
    CAN_Receive                              0x08003ac7   Thumb Code   240  stm32f10x_can.o(i.CAN_Receive)
    CAN_StructInit                           0x08003bb7   Thumb Code    32  stm32f10x_can.o(i.CAN_StructInit)
    CAN_Transmit                             0x08003bd7   Thumb Code   294  stm32f10x_can.o(i.CAN_Transmit)
    CanDataInit                              0x08003cfd   Thumb Code    16  can.o(i.CanDataInit)
    CanDataRead                              0x08003d11   Thumb Code    38  can.o(i.CanDataRead)
    CanDataWrite                             0x08003d3d   Thumb Code    30  can.o(i.CanDataWrite)
    CanDeInit                                0x08003d61   Thumb Code    50  can.o(i.CanDeInit)
    CanFilterInit                            0x08003d9d   Thumb Code    86  can.o(i.CanFilterInit)
    CanInit                                  0x08003df5   Thumb Code   270  can.o(i.CanInit)
    CanMain                                  0x08003f45   Thumb Code    90  can.o(i.CanMain)
    CanMonitor                               0x08003fb1   Thumb Code   280  can.o(i.CanMonitor)
    CanProcess                               0x0800413d   Thumb Code    26  can.o(i.CanProcess)
    CanRx                                    0x0800415d   Thumb Code   442  can.o(i.CanRx)
    CanTx                                    0x0800433d   Thumb Code   450  can.o(i.CanTx)
    CanTxData                                0x08004521   Thumb Code    52  can.o(i.CanTxData)
    Crc16Verify                              0x08004559   Thumb Code    62  selfdef.o(i.Crc16Verify)
    CrcCheck                                 0x08004599   Thumb Code    68  selfdef.o(i.CrcCheck)
    DMA1_Channel1_IRQHandler                 0x080045e1   Thumb Code   144  stm32f10x_it.o(i.DMA1_Channel1_IRQHandler)
    DMA_ClearITPendingBit                    0x0800467d   Thumb Code    18  stm32f10x_dma.o(i.DMA_ClearITPendingBit)
    DMA_Cmd                                  0x08004699   Thumb Code    24  stm32f10x_dma.o(i.DMA_Cmd)
    DMA_DeInit                               0x080046b1   Thumb Code   324  stm32f10x_dma.o(i.DMA_DeInit)
    DMA_GetFlagStatus                        0x080047fd   Thumb Code    34  stm32f10x_dma.o(i.DMA_GetFlagStatus)
    DMA_ITConfig                             0x08004829   Thumb Code    18  stm32f10x_dma.o(i.DMA_ITConfig)
    DMA_Init                                 0x0800483b   Thumb Code    60  stm32f10x_dma.o(i.DMA_Init)
    DayChangeMonitor                         0x08004879   Thumb Code   260  systask.o(i.DayChangeMonitor)
    DebugMon_Handler                         0x080049ad   Thumb Code     2  stm32f10x_it.o(i.DebugMon_Handler)
    DmaInit                                  0x080049b1   Thumb Code   116  driver.o(i.DmaInit)
    DriverMain                               0x08004a31   Thumb Code    74  driver.o(i.DriverMain)
    EXTI15_10_IRQHandler                     0x08004a89   Thumb Code   112  stm32f10x_it.o(i.EXTI15_10_IRQHandler)
    EXTI9_5_IRQHandler                       0x08004af9   Thumb Code   116  stm32f10x_it.o(i.EXTI9_5_IRQHandler)
    EXTI_ClearITPendingBit                   0x08004b75   Thumb Code     6  stm32f10x_exti.o(i.EXTI_ClearITPendingBit)
    EXTI_DeInit                              0x08004b81   Thumb Code    28  stm32f10x_exti.o(i.EXTI_DeInit)
    EXTI_GetITStatus                         0x08004ba5   Thumb Code    34  stm32f10x_exti.o(i.EXTI_GetITStatus)
    EXTI_Init                                0x08004bcd   Thumb Code   142  stm32f10x_exti.o(i.EXTI_Init)
    EXTI_StructInit                          0x08004c61   Thumb Code    16  stm32f10x_exti.o(i.EXTI_StructInit)
    ExitInit                                 0x08004c71   Thumb Code   208  driver.o(i.ExitInit)
    FLASH_ErasePage                          0x08004d45   Thumb Code    72  stm32f10x_flash.o(i.FLASH_ErasePage)
    FLASH_GetBank1Status                     0x08004d91   Thumb Code    48  stm32f10x_flash.o(i.FLASH_GetBank1Status)
    FLASH_Lock                               0x08004dc5   Thumb Code    14  stm32f10x_flash.o(i.FLASH_Lock)
    FLASH_ProgramWord                        0x08004dd9   Thumb Code   102  stm32f10x_flash.o(i.FLASH_ProgramWord)
    FLASH_Unlock                             0x08004e45   Thumb Code    12  stm32f10x_flash.o(i.FLASH_Unlock)
    FLASH_WaitForLastOperation               0x08004e5d   Thumb Code    38  stm32f10x_flash.o(i.FLASH_WaitForLastOperation)
    FeedWtd                                  0x08004e85   Thumb Code    46  driver.o(i.FeedWtd)
    FlashErase                               0x08004ebd   Thumb Code    34  flash.o(i.FlashErase)
    FlashRead                                0x08004edf   Thumb Code    30  flash.o(i.FlashRead)
    FlashWrite                               0x08004efd   Thumb Code    76  flash.o(i.FlashWrite)
    FtpAddrAnalysis                          0x08004f49   Thumb Code   470  ftp.o(i.FtpAddrAnalysis)
    FtpConnect                               0x08005135   Thumb Code   122  ftp.o(i.FtpConnect)
    FtpDelay                                 0x080051b9   Thumb Code   112  ftp.o(i.FtpDelay)
    FtpFileSave                              0x08005235   Thumb Code   156  ftp.o(i.FtpFileSave)
    FtpFun                                   0x080052d5   Thumb Code    38  ftp.o(i.FtpFun)
    FtpGetFile                               0x080052fd   Thumb Code   196  ftp.o(i.FtpGetFile)
    FtpGetSize                               0x080053cd   Thumb Code   222  ftp.o(i.FtpGetSize)
    FtpIpPortInit                            0x080054c5   Thumb Code   120  ftp.o(i.FtpIpPortInit)
    FtpMain                                  0x08005549   Thumb Code   304  ftp.o(i.FtpMain)
    FtpProcess                               0x080056a1   Thumb Code   482  ftp.o(i.FtpProcess)
    FtpTerminate                             0x0800588d   Thumb Code    68  ftp.o(i.FtpTerminate)
    FtpTx                                    0x080058d5   Thumb Code   288  ftp.o(i.FtpTx)
    FtpTxCwd                                 0x080059fd   Thumb Code   160  ftp.o(i.FtpTxCwd)
    FtpTxPassword                            0x08005aad   Thumb Code   144  ftp.o(i.FtpTxPassword)
    FtpTxPasv                                0x08005b4d   Thumb Code   218  ftp.o(i.FtpTxPasv)
    FtpTxTypeI                               0x08005c3d   Thumb Code    90  ftp.o(i.FtpTxTypeI)
    FtpTxUserName                            0x08005ca9   Thumb Code   144  ftp.o(i.FtpTxUserName)
    GPIO_Init                                0x08005d49   Thumb Code   274  stm32f10x_gpio.o(i.GPIO_Init)
    GPIO_ReadInputDataBit                    0x08005e5b   Thumb Code    18  stm32f10x_gpio.o(i.GPIO_ReadInputDataBit)
    GPIO_ResetBits                           0x08005e6d   Thumb Code     4  stm32f10x_gpio.o(i.GPIO_ResetBits)
    GPIO_SetBits                             0x08005e71   Thumb Code     4  stm32f10x_gpio.o(i.GPIO_SetBits)
    GetAccAtatistic                          0x08005e75   Thumb Code    36  syspara.o(i.GetAccAtatistic)
    GetApn                                   0x08005e9d   Thumb Code    28  syspara.o(i.GetApn)
    GetGprsUartRxData                        0x08005ebd   Thumb Code   382  driver.o(i.GetGprsUartRxData)
    GetGpsInfo                               0x08006049   Thumb Code    52  gps.o(i.GetGpsInfo)
    GetGpsUartRxData                         0x08006089   Thumb Code    36  driver.o(i.GetGpsUartRxData)
    GetHardwareVersion                       0x080060b1   Thumb Code    50  syspara.o(i.GetHardwareVersion)
    GetLocalUartRxData                       0x080060e9   Thumb Code    36  driver.o(i.GetLocalUartRxData)
    GetLowVoltageAlarm                       0x08006111   Thumb Code    22  syspara.o(i.GetLowVoltageAlarm)
    GetLsnalLockEnableFlag                   0x0800612d   Thumb Code    14  syspara.o(i.GetLsnalLockEnableFlag)
    GetLsnalLockPara                         0x08006141   Thumb Code    24  syspara.o(i.GetLsnalLockPara)
    GetMasterIp                              0x0800615d   Thumb Code    18  syspara.o(i.GetMasterIp)
    GetMeterErrTimer                         0x08006175   Thumb Code    24  syspara.o(i.GetMeterErrTimer)
    GetOverSpeed                             0x08006191   Thumb Code    22  syspara.o(i.GetOverSpeed)
    GetPort                                  0x080061ad   Thumb Code    22  syspara.o(i.GetPort)
    GetSlaverIp                              0x080061c9   Thumb Code    18  syspara.o(i.GetSlaverIp)
    GetSleepTimer                            0x080061e1   Thumb Code    24  syspara.o(i.GetSleepTimer)
    GetSmsAlarmCenterNum                     0x080061fd   Thumb Code    28  syspara.o(i.GetSmsAlarmCenterNum)
    GetSoftWareVersion                       0x0800621d   Thumb Code    28  syspara.o(i.GetSoftWareVersion)
    GetTerminalId                            0x0800623d   Thumb Code    18  syspara.o(i.GetTerminalId)
    GetTerminalPassword                      0x08006255   Thumb Code    44  syspara.o(i.GetTerminalPassword)
    GetTerminalSerialNum                     0x08006285   Thumb Code    50  syspara.o(i.GetTerminalSerialNum)
    GetWorkPara                              0x080062bd   Thumb Code    42  syspara.o(i.GetWorkPara)
    GpioInit                                 0x080062ed   Thumb Code   578  driver.o(i.GpioInit)
    GprsAtInit                               0x08006545   Thumb Code   440  gprs.o(i.GprsAtInit)
    GprsAutoBpr                              0x0800671d   Thumb Code   112  gprs.o(i.GprsAutoBpr)
    GprsDelay                                0x0800679d   Thumb Code   118  gprs.o(i.GprsDelay)
    GprsMain                                 0x0800681d   Thumb Code   376  gprs.o(i.GprsMain)
    GprsMonitor                              0x080069d1   Thumb Code    56  systask.o(i.GprsMonitor)
    GprsParaInit                             0x08006a35   Thumb Code    38  gprs.o(i.GprsParaInit)
    GprsPowerInit                            0x08006a65   Thumb Code   160  gprs.o(i.GprsPowerInit)
    GprsSendAtCmd                            0x08006b21   Thumb Code   288  gprs.o(i.GprsSendAtCmd)
    GprsSwitchAtMode                         0x08006c5d   Thumb Code   100  gprs.o(i.GprsSwitchAtMode)
    GprsSwitchGprsDataMode                   0x08006ce1   Thumb Code    96  gprs.o(i.GprsSwitchGprsDataMode)
    GprsUartFixedLenSend                     0x08006d65   Thumb Code    42  driver.o(i.GprsUartFixedLenSend)
    GprsUartIsRxDone                         0x08006d95   Thumb Code    82  driver.o(i.GprsUartIsRxDone)
    GprsUartParaInit                         0x08006df1   Thumb Code    18  driver.o(i.GprsUartParaInit)
    GpsAdd8Hour                              0x08006e0d   Thumb Code   214  gps.o(i.GpsAdd8Hour)
    GpsAntMonitor                            0x08006ee5   Thumb Code   194  systask.o(i.GpsAntMonitor)
    GpsCharFloatDataToHex                    0x08006fe9   Thumb Code   456  gps.o(i.GpsCharFloatDataToHex)
    GpsFrameCheck                            0x080071b9   Thumb Code    70  gps.o(i.GpsFrameCheck)
    GpsGetDate                               0x080071ff   Thumb Code   124  gps.o(i.GpsGetDate)
    GpsGetGprmcGpggaInfo                     0x0800727d   Thumb Code  1126  gps.o(i.GpsGetGprmcGpggaInfo)
    GpsGetTime                               0x08007769   Thumb Code   100  gps.o(i.GpsGetTime)
    GpsMain                                  0x080077cd   Thumb Code   388  gps.o(i.GpsMain)
    GpsMonitor                               0x08007979   Thumb Code   284  systask.o(i.GpsMonitor)
    GpsUartIsRxDone                          0x08007b0d   Thumb Code    56  driver.o(i.GpsUartIsRxDone)
    GpsUartParaInit                          0x08007b49   Thumb Code    14  driver.o(i.GpsUartParaInit)
    GsmCsqCheck                              0x08007b5d   Thumb Code    40  gprs.o(i.GsmCsqCheck)
    GsmCsqCheckMonitor                       0x08007b8d   Thumb Code    44  systask.o(i.GsmCsqCheckMonitor)
    GsmDisLcpAndIntoSleep                    0x08007bbd   Thumb Code    98  gprs.o(i.GsmDisLcpAndIntoSleep)
    GsmTelSmsProcess                         0x08007c29   Thumb Code   230  gprs.o(i.GsmTelSmsProcess)
    GsmVaryInit                              0x08007d75   Thumb Code    62  gprs.o(i.GsmVaryInit)
    HardFault_Handler                        0x08007dc1   Thumb Code     4  stm32f10x_it.o(i.HardFault_Handler)
    HexToAscii                               0x08007dc5   Thumb Code    74  selfdef.o(i.HexToAscii)
    IWDG_Enable                              0x08007e25   Thumb Code    10  stm32f10x_iwdg.o(i.IWDG_Enable)
    IWDG_ReloadCounter                       0x08007e35   Thumb Code    10  stm32f10x_iwdg.o(i.IWDG_ReloadCounter)
    IWDG_SetPrescaler                        0x08007e45   Thumb Code     6  stm32f10x_iwdg.o(i.IWDG_SetPrescaler)
    IWDG_SetReload                           0x08007e51   Thumb Code     6  stm32f10x_iwdg.o(i.IWDG_SetReload)
    IWDG_WriteAccessCmd                      0x08007e5d   Thumb Code     6  stm32f10x_iwdg.o(i.IWDG_WriteAccessCmd)
    IpHeadCheck                              0x08007e69   Thumb Code    58  ppp.o(i.IpHeadCheck)
    IpTx                                     0x08007ea5   Thumb Code   198  ppp.o(i.IpTx)
    IsValidAscii                             0x08007f75   Thumb Code    68  selfdef.o(i.IsValidAscii)
    IsValidChar                              0x08007fb9   Thumb Code    56  selfdef.o(i.IsValidChar)
    IsValidCharFloatNum                      0x08007ff1   Thumb Code    50  selfdef.o(i.IsValidCharFloatNum)
    IsValidNum                               0x08008023   Thumb Code    44  selfdef.o(i.IsValidNum)
    IsValidNumOrChar                         0x0800804f   Thumb Code    68  selfdef.o(i.IsValidNumOrChar)
    IsValidNumOrCharOrDot                    0x08008093   Thumb Code    74  selfdef.o(i.IsValidNumOrCharOrDot)
    IwdgInit                                 0x080080dd   Thumb Code    34  driver.o(i.IwdgInit)
    KeyDataSave                              0x08008101   Thumb Code    32  systask.o(i.KeyDataSave)
    LatLongPositionMonitor                   0x08008125   Thumb Code   144  systask.o(i.LatLongPositionMonitor)
    LocalCommDelay                           0x080081c5   Thumb Code   100  localcomm.o(i.LocalCommDelay)
    LocalCommFtpState                        0x0800822d   Thumb Code    50  localcomm.o(i.LocalCommFtpState)
    LocalCommGetSysState                     0x08008265   Thumb Code   388  localcomm.o(i.LocalCommGetSysState)
    LocalCommMain                            0x080083f9   Thumb Code     8  localcomm.o(i.LocalCommMain)
    LocalCommRx                              0x08008401   Thumb Code   412  localcomm.o(i.LocalCommRx)
    LocalCommTx                              0x080085a5   Thumb Code    88  localcomm.o(i.LocalCommTx)
    LocalDebug                               0x080085fd   Thumb Code    34  driver.o(i.LocalDebug)
    LocalUartFixedLenSend                    0x08008625   Thumb Code    42  driver.o(i.LocalUartFixedLenSend)
    LocalUartIsRxDone                        0x08008655   Thumb Code    56  driver.o(i.LocalUartIsRxDone)
    LocalUartParaInit                        0x08008691   Thumb Code    14  driver.o(i.LocalUartParaInit)
    LockRecord                               0x080086a5   Thumb Code    50  syspara.o(i.LockRecord)
    LockRecordRead                           0x080086dd   Thumb Code    20  syspara.o(i.LockRecordRead)
    LockRecordWrite                          0x080086f5   Thumb Code    20  syspara.o(i.LockRecordWrite)
    LongTimeDly                              0x0800870d   Thumb Code    30  selfdef.o(i.LongTimeDly)
    LsnalLockMonitor                         0x0800872d   Thumb Code   214  systask.o(i.LsnalLockMonitor)
    MemCmp                                   0x0800880d   Thumb Code    36  selfdef.o(i.MemCmp)
    MemCpy                                   0x08008831   Thumb Code    22  selfdef.o(i.MemCpy)
    MemManage_Handler                        0x08008847   Thumb Code     4  stm32f10x_it.o(i.MemManage_Handler)
    MeterUartIsRxDone                        0x0800884d   Thumb Code    56  driver.o(i.MeterUartIsRxDone)
    NMI_Handler                              0x08008889   Thumb Code     4  stm32f10x_it.o(i.NMI_Handler)
    NVIC_Init                                0x0800888d   Thumb Code   102  misc.o(i.NVIC_Init)
    PVD_IRQHandler                           0x08008901   Thumb Code    24  stm32f10x_it.o(i.PVD_IRQHandler)
    PWR_BackupAccessCmd                      0x08008919   Thumb Code     6  stm32f10x_pwr.o(i.PWR_BackupAccessCmd)
    PWR_EnterSTOPMode                        0x08008925   Thumb Code    54  stm32f10x_pwr.o(i.PWR_EnterSTOPMode)
    PWR_GetFlagStatus                        0x08008965   Thumb Code    20  stm32f10x_pwr.o(i.PWR_GetFlagStatus)
    PWR_PVDCmd                               0x0800897d   Thumb Code     6  stm32f10x_pwr.o(i.PWR_PVDCmd)
    PWR_PVDLevelConfig                       0x08008989   Thumb Code    18  stm32f10x_pwr.o(i.PWR_PVDLevelConfig)
    ParaCorrespond                           0x080089a1   Thumb Code    46  syspara.o(i.ParaCorrespond)
    ParaRecover                              0x080089d5   Thumb Code    34  syspara.o(i.ParaRecover)
    PendSV_Handler                           0x080089fd   Thumb Code     2  stm32f10x_it.o(i.PendSV_Handler)
    PowerMonitor                             0x08008a01   Thumb Code   192  systask.o(i.PowerMonitor)
    PppInit                                  0x08008b15   Thumb Code   168  ppp.o(i.PppInit)
    PppLcpAck                                0x08008bf9   Thumb Code    20  ppp.o(i.PppLcpAck)
    PppLcpNak                                0x08008c0d   Thumb Code    30  ppp.o(i.PppLcpNak)
    PppLcpProcess                            0x08008c35   Thumb Code   242  ppp.o(i.PppLcpProcess)
    PppLcpReq                                0x08008d41   Thumb Code    20  ppp.o(i.PppLcpReq)
    PppLcpTerminateAck                       0x08008d55   Thumb Code    20  ppp.o(i.PppLcpTerminateAck)
    PppMainProcess                           0x08008d69   Thumb Code   524  ppp.o(i.PppMainProcess)
    PppNcpAck                                0x08008f95   Thumb Code    20  ppp.o(i.PppNcpAck)
    PppNcpNak                                0x08008fa9   Thumb Code    42  ppp.o(i.PppNcpNak)
    PppNcpProcess                            0x08008fe5   Thumb Code   280  ppp.o(i.PppNcpProcess)
    PppNcpReq                                0x08009129   Thumb Code    20  ppp.o(i.PppNcpReq)
    PppPacketDecode                          0x0800913d   Thumb Code   142  ppp.o(i.PppPacketDecode)
    PppPacketEncode                          0x080091e5   Thumb Code   226  ppp.o(i.PppPacketEncode)
    PppPapProcess                            0x080092f1   Thumb Code    22  ppp.o(i.PppPapProcess)
    PppPapReq                                0x0800930d   Thumb Code   116  ppp.o(i.PppPapReq)
    PppTx                                    0x08009385   Thumb Code    96  ppp.o(i.PppTx)
    ProConstructFrameHead                    0x080093e5   Thumb Code   130  protocol.o(i.ProConstructFrameHead)
    ProConstructFrameTail                    0x08009471   Thumb Code    30  protocol.o(i.ProConstructFrameTail)
    ProDownAck                               0x08009491   Thumb Code   272  protocol.o(i.ProDownAck)
    ProDownCommParaAck                       0x080095b5   Thumb Code   146  protocol.o(i.ProDownCommParaAck)
    ProDownParaQuery                         0x08009655   Thumb Code    48  protocol.o(i.ProDownParaQuery)
    ProDownSetControlPara                    0x08009685   Thumb Code   162  protocol.o(i.ProDownSetControlPara)
    ProDownSetPara                           0x08009735   Thumb Code    58  protocol.o(i.ProDownSetPara)
    ProDownSetWorkPara                       0x08009775   Thumb Code    32  protocol.o(i.ProDownSetWorkPara)
    ProDownUpgrade                           0x08009795   Thumb Code   142  protocol.o(i.ProDownUpgrade)
    ProGetFromAccOnBuf                       0x0800984d   Thumb Code   108  protocol.o(i.ProGetFromAccOnBuf)
    ProLsnalDataInit                         0x080098bd   Thumb Code    36  protocol.o(i.ProLsnalDataInit)
    ProLsnalDataSave                         0x080098e5   Thumb Code   224  protocol.o(i.ProLsnalDataSave)
    ProLsnalHeadTailSave                     0x080099c9   Thumb Code    28  protocol.o(i.ProLsnalHeadTailSave)
    ProLsnalPageSave                         0x080099e9   Thumb Code   144  protocol.o(i.ProLsnalPageSave)
    ProLsnalSysExit                          0x08009a7d   Thumb Code   172  protocol.o(i.ProLsnalSysExit)
    ProPacket                                0x08009b2d   Thumb Code   388  protocol.o(i.ProPacket)
    ProParaInit                              0x08009cd9   Thumb Code   118  protocol.o(i.ProParaInit)
    ProPeriodTx                              0x08009d61   Thumb Code   394  protocol.o(i.ProPeriodTx)
    ProProcess                               0x08009f1d   Thumb Code   294  protocol.o(i.ProProcess)
    ProPutIntoAccOnBuf                       0x0800a069   Thumb Code    80  protocol.o(i.ProPutIntoAccOnBuf)
    ProPutIntoLsnal                          0x0800a0bd   Thumb Code   194  protocol.o(i.ProPutIntoLsnal)
    ProUpAccOnOff                            0x0800a195   Thumb Code    40  protocol.o(i.ProUpAccOnOff)
    ProUpAck                                 0x0800a1bd   Thumb Code    58  protocol.o(i.ProUpAck)
    ProUpAlarm                               0x0800a1f7   Thumb Code    46  protocol.o(i.ProUpAlarm)
    ProUpAquireCommPara                      0x0800a225   Thumb Code    30  protocol.o(i.ProUpAquireCommPara)
    ProUpControllerAck                       0x0800a243   Thumb Code    88  protocol.o(i.ProUpControllerAck)
    ProUpHeartBeat                           0x0800a29b   Thumb Code    18  protocol.o(i.ProUpHeartBeat)
    ProUpLatLongPosition                     0x0800a2ad   Thumb Code    22  protocol.o(i.ProUpLatLongPosition)
    ProUpLogin                               0x0800a2c3   Thumb Code    30  protocol.o(i.ProUpLogin)
    ProUpLsnalData                           0x0800a2e1   Thumb Code   290  protocol.o(i.ProUpLsnalData)
    ProUpPosition                            0x0800a411   Thumb Code    30  protocol.o(i.ProUpPosition)
    ProUpSleep                               0x0800a42f   Thumb Code    30  protocol.o(i.ProUpSleep)
    ProUpUpgradeResult                       0x0800a44d   Thumb Code    28  protocol.o(i.ProUpUpgradeResult)
    ProUpWorkPara                            0x0800a469   Thumb Code   318  protocol.o(i.ProUpWorkPara)
    ProUpWorkTimeStatistic                   0x0800a5b9   Thumb Code    22  protocol.o(i.ProUpWorkTimeStatistic)
    PvdInit                                  0x0800a5cf   Thumb Code    88  driver.o(i.PvdInit)
    QuerySysPrivatePara                      0x0800a629   Thumb Code   410  syspara.o(i.QuerySysPrivatePara)
    RCC_AHBPeriphClockCmd                    0x0800a7c9   Thumb Code    26  stm32f10x_rcc.o(i.RCC_AHBPeriphClockCmd)
    RCC_APB1PeriphClockCmd                   0x0800a7e9   Thumb Code    26  stm32f10x_rcc.o(i.RCC_APB1PeriphClockCmd)
    RCC_APB1PeriphResetCmd                   0x0800a809   Thumb Code    26  stm32f10x_rcc.o(i.RCC_APB1PeriphResetCmd)
    RCC_APB2PeriphClockCmd                   0x0800a829   Thumb Code    26  stm32f10x_rcc.o(i.RCC_APB2PeriphClockCmd)
    RCC_APB2PeriphResetCmd                   0x0800a849   Thumb Code    26  stm32f10x_rcc.o(i.RCC_APB2PeriphResetCmd)
    RCC_BackupResetCmd                       0x0800a869   Thumb Code     6  stm32f10x_rcc.o(i.RCC_BackupResetCmd)
    RCC_GetClocksFreq                        0x0800a875   Thumb Code   192  stm32f10x_rcc.o(i.RCC_GetClocksFreq)
    RCC_GetFlagStatus                        0x0800a949   Thumb Code    56  stm32f10x_rcc.o(i.RCC_GetFlagStatus)
    RCC_GetSYSCLKSource                      0x0800a985   Thumb Code    10  stm32f10x_rcc.o(i.RCC_GetSYSCLKSource)
    RCC_HSEConfig                            0x0800a995   Thumb Code    70  stm32f10x_rcc.o(i.RCC_HSEConfig)
    RCC_LSEConfig                            0x0800a9e1   Thumb Code    44  stm32f10x_rcc.o(i.RCC_LSEConfig)
    RCC_PLLCmd                               0x0800aa15   Thumb Code     6  stm32f10x_rcc.o(i.RCC_PLLCmd)
    RCC_RTCCLKCmd                            0x0800aa21   Thumb Code     6  stm32f10x_rcc.o(i.RCC_RTCCLKCmd)
    RCC_RTCCLKConfig                         0x0800aa2d   Thumb Code    12  stm32f10x_rcc.o(i.RCC_RTCCLKConfig)
    RCC_SYSCLKConfig                         0x0800aa3d   Thumb Code    18  stm32f10x_rcc.o(i.RCC_SYSCLKConfig)
    RCC_WaitForHSEStartUp                    0x0800aa55   Thumb Code    56  stm32f10x_rcc.o(i.RCC_WaitForHSEStartUp)
    RTCAlarm_IRQHandler                      0x0800aa8d   Thumb Code    32  stm32f10x_it.o(i.RTCAlarm_IRQHandler)
    RTC_ClearITPendingBit                    0x0800aaad   Thumb Code    12  stm32f10x_rtc.o(i.RTC_ClearITPendingBit)
    RTC_EnterConfigMode                      0x0800aabd   Thumb Code    14  stm32f10x_rtc.o(i.RTC_EnterConfigMode)
    RTC_ExitConfigMode                       0x0800aad1   Thumb Code    16  stm32f10x_rtc.o(i.RTC_ExitConfigMode)
    RTC_GetCounter                           0x0800aae5   Thumb Code    16  stm32f10x_rtc.o(i.RTC_GetCounter)
    RTC_GetITStatus                          0x0800aaf9   Thumb Code    32  stm32f10x_rtc.o(i.RTC_GetITStatus)
    RTC_IRQHandler                           0x0800ab1d   Thumb Code    80  stm32f10x_it.o(i.RTC_IRQHandler)
    RTC_ITConfig                             0x0800ab75   Thumb Code    26  stm32f10x_rtc.o(i.RTC_ITConfig)
    RTC_SetAlarm                             0x0800ab95   Thumb Code    24  stm32f10x_rtc.o(i.RTC_SetAlarm)
    RTC_SetCounter                           0x0800abb1   Thumb Code    24  stm32f10x_rtc.o(i.RTC_SetCounter)
    RTC_SetPrescaler                         0x0800abcd   Thumb Code    26  stm32f10x_rtc.o(i.RTC_SetPrescaler)
    RTC_WaitForLastTask                      0x0800abed   Thumb Code    14  stm32f10x_rtc.o(i.RTC_WaitForLastTask)
    RTC_WaitForSynchro                       0x0800ac01   Thumb Code    28  stm32f10x_rtc.o(i.RTC_WaitForSynchro)
    RamClear                                 0x0800ac21   Thumb Code    20  selfdef.o(i.RamClear)
    RamZero                                  0x0800ac35   Thumb Code    20  selfdef.o(i.RamZero)
    RingSmsMonitor                           0x0800ac49   Thumb Code   110  systask.o(i.RingSmsMonitor)
    RtcConfiguration                         0x0800acbd   Thumb Code   118  driver.o(i.RtcConfiguration)
    RtcGetCalendarTime                       0x0800ad33   Thumb Code    58  driver.o(i.RtcGetCalendarTime)
    RtcInit                                  0x0800ad6d   Thumb Code    60  driver.o(i.RtcInit)
    RtcSetCalendarTime                       0x0800ada9   Thumb Code    98  driver.o(i.RtcSetCalendarTime)
    SPI_Cmd                                  0x0800ae11   Thumb Code    24  stm32f10x_spi.o(i.SPI_Cmd)
    SPI_I2S_GetFlagStatus                    0x0800ae29   Thumb Code    18  stm32f10x_spi.o(i.SPI_I2S_GetFlagStatus)
    SPI_I2S_ReceiveData                      0x0800ae3b   Thumb Code     6  stm32f10x_spi.o(i.SPI_I2S_ReceiveData)
    SPI_I2S_SendData                         0x0800ae41   Thumb Code     4  stm32f10x_spi.o(i.SPI_I2S_SendData)
    SPI_Init                                 0x0800ae45   Thumb Code    60  stm32f10x_spi.o(i.SPI_Init)
    SVC_Handler                              0x0800ae81   Thumb Code     2  stm32f10x_it.o(i.SVC_Handler)
    SetAccStatistic                          0x0800ae85   Thumb Code    82  syspara.o(i.SetAccStatistic)
    SetApn                                   0x0800aedd   Thumb Code    90  syspara.o(i.SetApn)
    SetHardwareVersion                       0x0800af41   Thumb Code    98  syspara.o(i.SetHardwareVersion)
    SetLowVoltageAlarm                       0x0800afa9   Thumb Code    46  syspara.o(i.SetLowVoltageAlarm)
    SetLsnalLockEnableFlag                   0x0800afdd   Thumb Code    36  syspara.o(i.SetLsnalLockEnableFlag)
    SetLsnalLockPara                         0x0800b005   Thumb Code    54  syspara.o(i.SetLsnalLockPara)
    SetMasterIp                              0x0800b041   Thumb Code    86  syspara.o(i.SetMasterIp)
    SetMeterErrTimer                         0x0800b0a5   Thumb Code    56  syspara.o(i.SetMeterErrTimer)
    SetOverSpeed                             0x0800b0e1   Thumb Code    50  syspara.o(i.SetOverSpeed)
    SetPort                                  0x0800b119   Thumb Code    58  syspara.o(i.SetPort)
    SetSlaverIp                              0x0800b15d   Thumb Code    88  syspara.o(i.SetSlaverIp)
    SetSleepTimer                            0x0800b1c1   Thumb Code    64  syspara.o(i.SetSleepTimer)
    SetSmsAlarmCenterNum                     0x0800b205   Thumb Code    86  syspara.o(i.SetSmsAlarmCenterNum)
    SetSysPrivatePara                        0x0800b345   Thumb Code   428  syspara.o(i.SetSysPrivatePara)
    SetTerminalId                            0x0800b4f5   Thumb Code    66  syspara.o(i.SetTerminalId)
    SetTerminalPassword                      0x0800b541   Thumb Code    66  syspara.o(i.SetTerminalPassword)
    SetTerminalSerialNum                     0x0800b589   Thumb Code   102  syspara.o(i.SetTerminalSerialNum)
    SetWorkPara                              0x0800b5f5   Thumb Code    78  syspara.o(i.SetWorkPara)
    ShellMonitor                             0x0800b649   Thumb Code   164  systask.o(i.ShellMonitor)
    SimNumToTermId                           0x0800b72d   Thumb Code   132  sim.o(i.SimNumToTermId)
    SimSetSimNum                             0x0800b7b1   Thumb Code   120  sim.o(i.SimSetSimNum)
    SimTermIdToAsciiNum                      0x0800b831   Thumb Code    78  sim.o(i.SimTermIdToAsciiNum)
    SmsAckPacket                             0x0800b889   Thumb Code   270  sms.o(i.SmsAckPacket)
    SmsAnalysis                              0x0800b9dd   Thumb Code   550  sms.o(i.SmsAnalysis)
    SmsDecode7bit                            0x0800bc61   Thumb Code    80  sms.o(i.SmsDecode7bit)
    SmsDecode8bit                            0x0800bcb1   Thumb Code    26  sms.o(i.SmsDecode8bit)
    SmsDecodePdu                             0x0800bccd   Thumb Code   446  sms.o(i.SmsDecodePdu)
    SmsDecodeUcs2                            0x0800be95   Thumb Code    32  sms.o(i.SmsDecodeUcs2)
    SmsEncode7bit                            0x0800beb5   Thumb Code    66  sms.o(i.SmsEncode7bit)
    SmsEncode8bit                            0x0800bef7   Thumb Code    28  sms.o(i.SmsEncode8bit)
    SmsEncodePdu                             0x0800bf15   Thumb Code   220  sms.o(i.SmsEncodePdu)
    SmsEncodeUcs2                            0x0800bff5   Thumb Code    38  sms.o(i.SmsEncodeUcs2)
    SmsErrorAnalysis                         0x0800c01d   Thumb Code   308  sms.o(i.SmsErrorAnalysis)
    SmsLock                                  0x0800c171   Thumb Code    84  sms.o(i.SmsLock)
    SmsNumDecode                             0x0800c1cd   Thumb Code    50  sms.o(i.SmsNumDecode)
    SmsNumEncode                             0x0800c1ff   Thumb Code    84  sms.o(i.SmsNumEncode)
    SmsParaLen                               0x0800c253   Thumb Code    38  sms.o(i.SmsParaLen)
    SmsParaQuery                             0x0800c279   Thumb Code   560  sms.o(i.SmsParaQuery)
    SmsParaReInit                            0x0800c4c1   Thumb Code    52  sms.o(i.SmsParaReInit)
    SmsParaSet                               0x0800c4f9   Thumb Code   672  sms.o(i.SmsParaSet)
    SmsProcessFun                            0x0800c7a5   Thumb Code   194  sms.o(i.SmsProcessFun)
    SmsProgramUpgrade                        0x0800c87d   Thumb Code    56  sms.o(i.SmsProgramUpgrade)
    SmsTextDecode                            0x0800c8b5   Thumb Code    80  sms.o(i.SmsTextDecode)
    SmsTextEncode                            0x0800c905   Thumb Code   102  sms.o(i.SmsTextEncode)
    SmsTx                                    0x0800c96d   Thumb Code   174  sms.o(i.SmsTx)
    SmsUnlock                                0x0800ca35   Thumb Code    70  sms.o(i.SmsUnlock)
    SpeedMonitor                             0x0800ca81   Thumb Code   210  systask.o(i.SpeedMonitor)
    SpiFramInit                              0x0800cb95   Thumb Code   140  fram.o(i.SpiFramInit)
    SpiFramPageWrite                         0x0800cc29   Thumb Code   168  fram.o(i.SpiFramPageWrite)
    SpiFramRdByte                            0x0800ccd5   Thumb Code    48  fram.o(i.SpiFramRdByte)
    SpiFramRdRdsr                            0x0800cd09   Thumb Code    34  fram.o(i.SpiFramRdRdsr)
    SpiFramRead                              0x0800cd31   Thumb Code   236  fram.o(i.SpiFramRead)
    SpiFramWaitFree                          0x0800ce21   Thumb Code    26  fram.o(i.SpiFramWaitFree)
    SpiFramWrByte                            0x0800ce3d   Thumb Code    50  fram.o(i.SpiFramWrByte)
    SpiFramWrWren                            0x0800ce75   Thumb Code    30  fram.o(i.SpiFramWrWren)
    SpiFramWrite                             0x0800ce99   Thumb Code   126  fram.o(i.SpiFramWrite)
    StrLen                                   0x0800cf17   Thumb Code    32  selfdef.o(i.StrLen)
    SubMatch                                 0x0800cf37   Thumb Code    62  selfdef.o(i.SubMatch)
    SysBootParaRead                          0x0800cf75   Thumb Code    16  syspara.o(i.SysBootParaRead)
    SysBootParaWrite                         0x0800cf89   Thumb Code    32  syspara.o(i.SysBootParaWrite)
    SysClkConfigStop                         0x0800cfad   Thumb Code    54  driver.o(i.SysClkConfigStop)
    SysCommParaInit                          0x0800cfe5   Thumb Code   204  syspara.o(i.SysCommParaInit)
    SysDataRead                              0x0800d0f1   Thumb Code    22  syspara.o(i.SysDataRead)
    SysDataWrite                             0x0800d10d   Thumb Code    22  syspara.o(i.SysDataWrite)
    SysDelay                                 0x0800d129   Thumb Code    98  systask.o(i.SysDelay)
    SysKeyDataSave                           0x0800d191   Thumb Code    38  syspara.o(i.SysKeyDataSave)
    SysNoTaskDelay                           0x0800d1c1   Thumb Code    52  systask.o(i.SysNoTaskDelay)
    SysParaRead                              0x0800d1f9   Thumb Code   176  syspara.o(i.SysParaRead)
    SysPrivateParaInit                       0x0800d2b1   Thumb Code   106  syspara.o(i.SysPrivateParaInit)
    SysPrivateParaRead                       0x0800d325   Thumb Code    20  syspara.o(i.SysPrivateParaRead)
    SysPrivateParaWrite                      0x0800d33d   Thumb Code    34  syspara.o(i.SysPrivateParaWrite)
    SysReset                                 0x0800d365   Thumb Code    12  syspara.o(i.SysReset)
    SysSerialRead                            0x0800d371   Thumb Code    18  syspara.o(i.SysSerialRead)
    SysSerialWrite                           0x0800d389   Thumb Code    18  syspara.o(i.SysSerialWrite)
    SysTaskMain                              0x0800d3a1   Thumb Code   232  systask.o(i.SysTaskMain)
    SysTickDisable                           0x0800d49d   Thumb Code    18  driver.o(i.SysTickDisable)
    SysTickEnable                            0x0800d4af   Thumb Code    18  driver.o(i.SysTickEnable)
    SysTickInit                              0x0800d4c1   Thumb Code    88  driver.o(i.SysTickInit)
    SysTick_Handler                          0x0800d521   Thumb Code    66  stm32f10x_it.o(i.SysTick_Handler)
    SysVaryInit                              0x0800d571   Thumb Code   208  syspara.o(i.SysVaryInit)
    SysWorkParaInit                          0x0800d659   Thumb Code   128  syspara.o(i.SysWorkParaInit)
    SysWorkParaRead                          0x0800d6f9   Thumb Code    20  syspara.o(i.SysWorkParaRead)
    SysWorkParaWrite                         0x0800d711   Thumb Code    20  syspara.o(i.SysWorkParaWrite)
    SystemInit                               0x0800d729   Thumb Code    76  system_stm32f10x.o(i.SystemInit)
    TcpProcess                               0x0800d789   Thumb Code     2  ppp.o(i.TcpProcess)
    TcpUdpHeadCheck                          0x0800d78d   Thumb Code   142  ppp.o(i.TcpUdpHeadCheck)
    TermEnterSleep                           0x0800d821   Thumb Code   640  systask.o(i.TermEnterSleep)
    TermOffPwrAndPeriDeInit                  0x0800db0d   Thumb Code    80  systask.o(i.TermOffPwrAndPeriDeInit)
    TermOnPwrAndPeriReInit                   0x0800db71   Thumb Code   130  systask.o(i.TermOnPwrAndPeriReInit)
    TermReset                                0x0800dc11   Thumb Code    20  syspara.o(i.TermReset)
    TermReset2                               0x0800dc29   Thumb Code    20  syspara.o(i.TermReset2)
    TerminalHeart                            0x0800dc41   Thumb Code    56  systask.o(i.TerminalHeart)
    ThagDebugRead                            0x0800dc81   Thumb Code   176  localcomm.o(i.ThagDebugRead)
    ThagFtpFun                               0x0800dd35   Thumb Code   186  ftp.o(i.ThagFtpFun)
    TrailerMonitor                           0x0800ddf5   Thumb Code   300  systask.o(i.TrailerMonitor)
    U8SumCheck                               0x0800df5d   Thumb Code    28  selfdef.o(i.U8SumCheck)
    U8ToUint32                               0x0800df79   Thumb Code    24  selfdef.o(i.U8ToUint32)
    UART4_IRQHandler                         0x0800df91   Thumb Code    84  stm32f10x_it.o(i.UART4_IRQHandler)
    USART1_IRQHandler                        0x0800dfed   Thumb Code    66  stm32f10x_it.o(i.USART1_IRQHandler)
    USART2_IRQHandler                        0x0800e039   Thumb Code    66  stm32f10x_it.o(i.USART2_IRQHandler)
    USART3_IRQHandler                        0x0800e085   Thumb Code   110  stm32f10x_it.o(i.USART3_IRQHandler)
    USART_Cmd                                0x0800e105   Thumb Code    24  stm32f10x_usart.o(i.USART_Cmd)
    USART_DeInit                             0x0800e11d   Thumb Code   134  stm32f10x_usart.o(i.USART_DeInit)
    USART_GetFlagStatus                      0x0800e1b9   Thumb Code    26  stm32f10x_usart.o(i.USART_GetFlagStatus)
    USART_GetITStatus                        0x0800e1d3   Thumb Code    84  stm32f10x_usart.o(i.USART_GetITStatus)
    USART_ITConfig                           0x0800e227   Thumb Code    74  stm32f10x_usart.o(i.USART_ITConfig)
    USART_Init                               0x0800e271   Thumb Code   210  stm32f10x_usart.o(i.USART_Init)
    USART_ReceiveData                        0x0800e349   Thumb Code    10  stm32f10x_usart.o(i.USART_ReceiveData)
    USART_SendData                           0x0800e353   Thumb Code     8  stm32f10x_usart.o(i.USART_SendData)
    USB_LP_CAN1_RX0_IRQHandler               0x0800e35b   Thumb Code     8  stm32f10x_it.o(i.USB_LP_CAN1_RX0_IRQHandler)
    UdpIpPortInit                            0x0800e365   Thumb Code    56  ppp.o(i.UdpIpPortInit)
    UdpProcess                               0x0800e3a5   Thumb Code    16  ppp.o(i.UdpProcess)
    UdpTx                                    0x0800e3b5   Thumb Code   128  ppp.o(i.UdpTx)
    Uint32ToU8                               0x0800e439   Thumb Code    16  selfdef.o(i.Uint32ToU8)
    UnLockRecord                             0x0800e449   Thumb Code    16  syspara.o(i.UnLockRecord)
    UsageFault_Handler                       0x0800e45d   Thumb Code     4  stm32f10x_it.o(i.UsageFault_Handler)
    UsartGprsDeInit                          0x0800e461   Thumb Code    54  driver.o(i.UsartGprsDeInit)
    UsartInit                                0x0800e49d   Thumb Code   462  driver.o(i.UsartInit)
    VoltageMonitor                           0x0800e69d   Thumb Code   224  systask.o(i.VoltageMonitor)
    XorCheck                                 0x0800e7c5   Thumb Code    26  selfdef.o(i.XorCheck)
    _is_digit                                0x0800e7df   Thumb Code    14  __printf_wp.o(i._is_digit)
    main                                     0x0800e7ed   Thumb Code   182  main.o(i.main)
    serial_comm_struct                       0x0800e8c8   Data          92  syspara.o(.constdata)
    sys_const_para_struct                    0x0800e924   Data         128  syspara.o(.constdata)
    _monlen                                  0x0800ebe9   Data          12  _monlen.o(.constdata)
    Region$$Table$$Base                      0x0800ebf8   Number         0  anon$$obj.o(Region$$Table)
    Region$$Table$$Limit                     0x0800ec18   Number         0  anon$$obj.o(Region$$Table)
    g_gprs_usart_struct                      0x2000001a   Data           4  driver.o(.data)
    AT                                       0x20000024   Data           4  gprs.o(.data)
    AT_E0                                    0x20000028   Data           6  gprs.o(.data)
    AT_IPR                                   0x2000002e   Data          17  gprs.o(.data)
    AT_CIMI                                  0x2000003f   Data          10  gprs.o(.data)
    AT_CNUM                                  0x20000049   Data           9  gprs.o(.data)
    AT_CPBS_ON                               0x20000052   Data          14  gprs.o(.data)
    AT_CPBW                                  0x20000060   Data          11  gprs.o(.data)
    AT_IMEI                                  0x2000006b   Data          11  gprs.o(.data)
    AT_CSQ                                   0x20000076   Data           8  gprs.o(.data)
    AT_CREG                                  0x2000007e   Data          10  gprs.o(.data)
    AT_CGATT                                 0x20000088   Data          11  gprs.o(.data)
    AT_CGATT_1                               0x20000093   Data          12  gprs.o(.data)
    AT_CGATT_0                               0x2000009f   Data          12  gprs.o(.data)
    AT_CGDCONT                               0x200000ab   Data          19  gprs.o(.data)
    AT_ATD                                   0x200000be   Data          13  gprs.o(.data)
    AT_CMD_MODE                              0x200000cb   Data           4  gprs.o(.data)
    AT_GPRS_DATA_MODE                        0x200000cf   Data           5  gprs.o(.data)
    AT_CMGF                                  0x200000d4   Data          11  gprs.o(.data)
    AT_CMGL                                  0x200000df   Data          11  gprs.o(.data)
    AT_CMGS                                  0x200000ea   Data           9  gprs.o(.data)
    AT_CMGD                                  0x200000f3   Data          13  gprs.o(.data)
    AT_ATH                                   0x20000100   Data           5  gprs.o(.data)
    AT_SLEEP                                 0x20000105   Data          12  gprs.o(.data)
    AT_WAKE                                  0x20000111   Data          12  gprs.o(.data)
    AT_NULL                                  0x2000011d   Data           1  gprs.o(.data)
    OK_ACK                                   0x2000011e   Data           3  gprs.o(.data)
    CONNECT                                  0x20000121   Data           8  gprs.o(.data)
    CRLF_ACK                                 0x20000129   Data           3  gprs.o(.data)
    at_cmd_struct                            0x2000012c   Data         200  gprs.o(.data)
    at_cmd_process_fun_array                 0x200001f4   Data         100  gprs.o(.data)
    g_local_uart_struct                      0x20000294   Data          12  driver.o(.bss)
    g_gps_uart_struct                        0x200002a0   Data          12  driver.o(.bss)
    g_gprs_uart_struct                       0x200002ac   Data          12  driver.o(.bss)
    g_meter_uart_struct                      0x200002b8   Data          12  driver.o(.bss)
    local_uart_buf                           0x200002c4   Data         256  driver.o(.bss)
    gps_uart_buf                             0x200003c4   Data         256  driver.o(.bss)
    gprs_uart_buf                            0x200004c4   Data        4096  driver.o(.bss)
    meter_uart_buf                           0x200014c4   Data         256  driver.o(.bss)
    sys_serial_struct                        0x200015c4   Data          32  syspara.o(.bss)
    sys_boot_para_struct                     0x200015e4   Data          12  syspara.o(.bss)
    sys_private_para_struct                  0x200015f0   Data         240  syspara.o(.bss)
    sys_work_para_struct                     0x200016e0   Data          48  syspara.o(.bss)
    sys_misc_run_struct                      0x20001710   Data          48  syspara.o(.bss)
    sys_data_struct                          0x20001740   Data         764  syspara.o(.bss)
    lock_record_struct                       0x20001a3c   Data          11  syspara.o(.bss)
    gps_struct                               0x20001a47   Data         328  gps.o(.bss)
    gsm_misc_struct                          0x20001b90   Data          42  gprs.o(.bss)
    g_ppp_struct                             0x20001bbc   Data          76  ppp.o(.bss)
    udp_struct                               0x20001c08   Data          12  ppp.o(.bss)
    tcp_struct                               0x20001c14   Data          12  ppp.o(.bss)
    pro_struct                               0x20001c20   Data        3470  protocol.o(.bss)
    ftp_struct                               0x200029b0   Data         732  ftp.o(.bss)
    sms_struct                               0x20002c8c   Data          67  sms.o(.bss)
    can_struct                               0x20002ccf   Data         192  can.o(.bss)
    can_lock_struct                          0x20002d8f   Data          12  can.o(.bss)
    __libspace_start                         0x20002dc8   Data          96  libspace.o(.bss)
    __temporary_stack_top$libspace           0x20002e28   Data           0  libspace.o(.bss)



==============================================================================

Memory Map of the image

  Image Entry point : 0x08002131

  Load Region LR_IROM1 (Base: 0x08002000, Size: 0x0000ce9c, Max: 0x00020000, ABSOLUTE, COMPRESSED[0x0000cd90])

    Execution Region ER_IROM1 (Base: 0x08002000, Size: 0x0000cc18, Max: 0x00020000, ABSOLUTE)

    Base Addr    Size         Type   Attr      Idx    E Section Name        Object

    0x08002000   0x00000130   Data   RO            3    RESET               startup_stm32f10x_hd.o
    0x08002130   0x00000008   Code   RO         4757  * !!!main             c_w.l(__main.o)
    0x08002138   0x00000034   Code   RO         4932    !!!scatter          c_w.l(__scatter.o)
    0x0800216c   0x0000005a   Code   RO         4930    !!dczerorl2         c_w.l(__dczerorl2.o)
    0x080021c6   0x00000002   PAD
    0x080021c8   0x0000001c   Code   RO         4934    !!handler_zi        c_w.l(__scatter_zi.o)
    0x080021e4   0x00000000   Code   RO         4744    .ARM.Collect$$_printf_percent$$00000000  c_w.l(_printf_percent.o)
    0x080021e4   0x0000000a   Code   RO         4771    .ARM.Collect$$_printf_percent$$00000007  c_w.l(_printf_ll.o)
    0x080021ee   0x00000006   Code   RO         4742    .ARM.Collect$$_printf_percent$$00000009  c_w.l(_printf_d.o)
    0x080021f4   0x00000006   Code   RO         4743    .ARM.Collect$$_printf_percent$$0000000A  c_w.l(_printf_u.o)
    0x080021fa   0x00000006   Code   RO         4741    .ARM.Collect$$_printf_percent$$0000000C  c_w.l(_printf_x.o)
    0x08002200   0x00000006   Code   RO         4745    .ARM.Collect$$_printf_percent$$0000000F  c_w.l(_printf_llu.o)
    0x08002206   0x00000006   Code   RO         4739    .ARM.Collect$$_printf_percent$$00000013  c_w.l(_printf_c.o)
    0x0800220c   0x00000006   Code   RO         4740    .ARM.Collect$$_printf_percent$$00000014  c_w.l(_printf_s.o)
    0x08002212   0x00000004   Code   RO         4770    .ARM.Collect$$_printf_percent$$00000017  c_w.l(_printf_percent_end.o)
    0x08002216   0x00000002   Code   RO         4803    .ARM.Collect$$libinit$$00000000  c_w.l(libinit.o)
    0x08002218   0x00000000   Code   RO         4810    .ARM.Collect$$libinit$$00000002  c_w.l(libinit2.o)
    0x08002218   0x00000000   Code   RO         4813    .ARM.Collect$$libinit$$00000008  c_w.l(libinit2.o)
    0x08002218   0x00000000   Code   RO         4815    .ARM.Collect$$libinit$$0000000A  c_w.l(libinit2.o)
    0x08002218   0x00000000   Code   RO         4817    .ARM.Collect$$libinit$$0000000C  c_w.l(libinit2.o)
    0x08002218   0x00000000   Code   RO         4820    .ARM.Collect$$libinit$$0000000F  c_w.l(libinit2.o)
    0x08002218   0x00000000   Code   RO         4822    .ARM.Collect$$libinit$$00000011  c_w.l(libinit2.o)
    0x08002218   0x00000000   Code   RO         4824    .ARM.Collect$$libinit$$00000013  c_w.l(libinit2.o)
    0x08002218   0x00000000   Code   RO         4826    .ARM.Collect$$libinit$$00000015  c_w.l(libinit2.o)
    0x08002218   0x00000000   Code   RO         4828    .ARM.Collect$$libinit$$00000017  c_w.l(libinit2.o)
    0x08002218   0x00000000   Code   RO         4830    .ARM.Collect$$libinit$$00000019  c_w.l(libinit2.o)
    0x08002218   0x00000000   Code   RO         4832    .ARM.Collect$$libinit$$0000001B  c_w.l(libinit2.o)
    0x08002218   0x00000000   Code   RO         4834    .ARM.Collect$$libinit$$0000001D  c_w.l(libinit2.o)
    0x08002218   0x00000000   Code   RO         4836    .ARM.Collect$$libinit$$0000001F  c_w.l(libinit2.o)
    0x08002218   0x00000000   Code   RO         4838    .ARM.Collect$$libinit$$00000021  c_w.l(libinit2.o)
    0x08002218   0x00000000   Code   RO         4840    .ARM.Collect$$libinit$$00000023  c_w.l(libinit2.o)
    0x08002218   0x00000000   Code   RO         4844    .ARM.Collect$$libinit$$0000002A  c_w.l(libinit2.o)
    0x08002218   0x00000000   Code   RO         4846    .ARM.Collect$$libinit$$0000002C  c_w.l(libinit2.o)
    0x08002218   0x00000000   Code   RO         4848    .ARM.Collect$$libinit$$0000002E  c_w.l(libinit2.o)
    0x08002218   0x00000000   Code   RO         4850    .ARM.Collect$$libinit$$00000030  c_w.l(libinit2.o)
    0x08002218   0x00000002   Code   RO         4851    .ARM.Collect$$libinit$$00000031  c_w.l(libinit2.o)
    0x0800221a   0x00000002   Code   RO         4871    .ARM.Collect$$libshutdown$$00000000  c_w.l(libshutdown.o)
    0x0800221c   0x00000000   Code   RO         4885    .ARM.Collect$$libshutdown$$00000003  c_w.l(libshutdown2.o)
    0x0800221c   0x00000000   Code   RO         4888    .ARM.Collect$$libshutdown$$00000006  c_w.l(libshutdown2.o)
    0x0800221c   0x00000000   Code   RO         4891    .ARM.Collect$$libshutdown$$00000009  c_w.l(libshutdown2.o)
    0x0800221c   0x00000000   Code   RO         4893    .ARM.Collect$$libshutdown$$0000000B  c_w.l(libshutdown2.o)
    0x0800221c   0x00000000   Code   RO         4896    .ARM.Collect$$libshutdown$$0000000E  c_w.l(libshutdown2.o)
    0x0800221c   0x00000002   Code   RO         4897    .ARM.Collect$$libshutdown$$0000000F  c_w.l(libshutdown2.o)
    0x0800221e   0x00000000   Code   RO         4759    .ARM.Collect$$rtentry$$00000000  c_w.l(rtentry.o)
    0x0800221e   0x00000000   Code   RO         4776    .ARM.Collect$$rtentry$$00000002  c_w.l(rtentry2.o)
    0x0800221e   0x00000006   Code   RO         4788    .ARM.Collect$$rtentry$$00000004  c_w.l(rtentry4.o)
    0x08002224   0x00000000   Code   RO         4778    .ARM.Collect$$rtentry$$00000009  c_w.l(rtentry2.o)
    0x08002224   0x00000004   Code   RO         4779    .ARM.Collect$$rtentry$$0000000A  c_w.l(rtentry2.o)
    0x08002228   0x00000000   Code   RO         4781    .ARM.Collect$$rtentry$$0000000C  c_w.l(rtentry2.o)
    0x08002228   0x00000008   Code   RO         4782    .ARM.Collect$$rtentry$$0000000D  c_w.l(rtentry2.o)
    0x08002230   0x00000002   Code   RO         4807    .ARM.Collect$$rtexit$$00000000  c_w.l(rtexit.o)
    0x08002232   0x00000000   Code   RO         4853    .ARM.Collect$$rtexit$$00000002  c_w.l(rtexit2.o)
    0x08002232   0x00000004   Code   RO         4854    .ARM.Collect$$rtexit$$00000003  c_w.l(rtexit2.o)
    0x08002236   0x00000006   Code   RO         4855    .ARM.Collect$$rtexit$$00000004  c_w.l(rtexit2.o)
    0x0800223c   0x00000040   Code   RO            4    .text               startup_stm32f10x_hd.o
    0x0800227c   0x0000002c   Code   RO         4684    .text               c_w.l(__2sprintf.o)
    0x080022a8   0x00000052   Code   RO         4690    .text               c_w.l(_printf_pad.o)
    0x080022fa   0x00000052   Code   RO         4692    .text               c_w.l(_printf_str.o)
    0x0800234c   0x00000078   Code   RO         4694    .text               c_w.l(_printf_dec.o)
    0x080023c4   0x00000078   Code   RO         4696    .text               c_w.l(_printf_longlong_dec.o)
    0x0800243c   0x0000005c   Code   RO         4701    .text               c_w.l(_printf_hex_int.o)
    0x08002498   0x0000018c   Code   RO         4736    .text               c_w.l(__printf_flags_ss_wp.o)
    0x08002624   0x0000008a   Code   RO         4746    .text               c_w.l(rt_memcpy_v6.o)
    0x080026ae   0x00000064   Code   RO         4748    .text               c_w.l(rt_memcpy_w.o)
    0x08002712   0x00000002   PAD
    0x08002714   0x0000000c   Code   RO         4750    .text               c_w.l(localtime.o)
    0x08002720   0x000001a4   Code   RO         4753    .text               c_w.l(mktime.o)
    0x080028c4   0x00000006   Code   RO         4755    .text               c_w.l(heapauxi.o)
    0x080028ca   0x0000008a   Code   RO         4760    .text               c_w.l(lludiv10.o)
    0x08002954   0x000000b8   Code   RO         4762    .text               c_w.l(_printf_intcommon.o)
    0x08002a0c   0x00000030   Code   RO         4764    .text               c_w.l(_printf_char_common.o)
    0x08002a3c   0x0000000a   Code   RO         4766    .text               c_w.l(_sputc.o)
    0x08002a46   0x0000002c   Code   RO         4768    .text               c_w.l(_printf_char.o)
    0x08002a72   0x00000002   PAD
    0x08002a74   0x000000a4   Code   RO         4773    .text               c_w.l(localtime_internal.o)
    0x08002b18   0x0000004e   Code   RO         4792    .text               c_w.l(rt_memclr_w.o)
    0x08002b66   0x0000004a   Code   RO         4794    .text               c_w.l(sys_stackheap_outer.o)
    0x08002bb0   0x0000000c   Code   RO         4796    .text               c_w.l(exit.o)
    0x08002bbc   0x00000008   Code   RO         4804    .text               c_w.l(libspace.o)
    0x08002bc4   0x0000000c   Code   RO         4863    .text               c_w.l(sys_exit.o)
    0x08002bd0   0x00000002   Code   RO         4874    .text               c_w.l(use_no_semi.o)
    0x08002bd2   0x00000000   Code   RO         4876    .text               c_w.l(indicate_semi.o)
    0x08002bd2   0x00000016   Code   RO         1301    i.ADC_Cmd           stm32f10x_adc.o
    0x08002be8   0x00000016   Code   RO         1302    i.ADC_DMACmd        stm32f10x_adc.o
    0x08002bfe   0x00000014   Code   RO         1309    i.ADC_GetCalibrationStatus  stm32f10x_adc.o
    0x08002c12   0x00000014   Code   RO         1315    i.ADC_GetResetCalibrationStatus  stm32f10x_adc.o
    0x08002c26   0x00000002   PAD
    0x08002c28   0x00000050   Code   RO         1319    i.ADC_Init          stm32f10x_adc.o
    0x08002c78   0x000000b8   Code   RO         1323    i.ADC_RegularChannelConfig  stm32f10x_adc.o
    0x08002d30   0x0000000a   Code   RO         1324    i.ADC_ResetCalibration  stm32f10x_adc.o
    0x08002d3a   0x00000016   Code   RO         1326    i.ADC_SoftwareStartConvCmd  stm32f10x_adc.o
    0x08002d50   0x0000000a   Code   RO         1328    i.ADC_StartCalibration  stm32f10x_adc.o
    0x08002d5a   0x00000002   PAD
    0x08002d5c   0x000001dc   Code   RO         4092    i.AccMonitor        systask.o
    0x08002f38   0x000000e8   Code   RO         4093    i.AccOnOffDataAppend  systask.o
    0x08003020   0x00000044   Code   RO         4094    i.AccOnOffDataInit  systask.o
    0x08003064   0x00000050   Code   RO         4095    i.AccOnOffStatisticDataCheck  systask.o
    0x080030b4   0x0000006c   Code   RO         4096    i.AccOnOffStatisticDataSave  systask.o
    0x08003120   0x000000b8   Code   RO         2514    i.AdcInit           driver.o
    0x080031d8   0x00000030   Code   RO         3126    i.AsciiToHex        selfdef.o
    0x08003208   0x0000006a   Code   RO         3127    i.AsciiToHexVal     selfdef.o
    0x08003272   0x00000002   PAD
    0x08003274   0x00000018   Code   RO         3332    i.AtAdtFun          gprs.o
    0x0800328c   0x00000018   Code   RO         3333    i.AtAthFun          gprs.o
    0x080032a4   0x00000018   Code   RO         3334    i.AtCgatt0Fun       gprs.o
    0x080032bc   0x00000018   Code   RO         3335    i.AtCgatt1Fun       gprs.o
    0x080032d4   0x00000058   Code   RO         3336    i.AtCgattFun        gprs.o
    0x0800332c   0x00000018   Code   RO         3337    i.AtCgdcontFun      gprs.o
    0x08003344   0x00000168   Code   RO         3338    i.AtCimiFun         gprs.o
    0x080034ac   0x00000018   Code   RO         3339    i.AtCmdModeFun      gprs.o
    0x080034c4   0x00000018   Code   RO         3340    i.AtCmgdFun         gprs.o
    0x080034dc   0x00000018   Code   RO         3341    i.AtCmgfFun         gprs.o
    0x080034f4   0x00000050   Code   RO         3342    i.AtCmglFun         gprs.o
    0x08003544   0x00000018   Code   RO         3343    i.AtCmgsFun         gprs.o
    0x0800355c   0x000000b0   Code   RO         3344    i.AtCnumFun         gprs.o
    0x0800360c   0x00000018   Code   RO         3345    i.AtCpbsOnFun       gprs.o
    0x08003624   0x00000018   Code   RO         3346    i.AtCpbwFun         gprs.o
    0x0800363c   0x0000005c   Code   RO         3347    i.AtCregFun         gprs.o
    0x08003698   0x000000a0   Code   RO         3348    i.AtCsqFun          gprs.o
    0x08003738   0x00000018   Code   RO         3349    i.AtE0Fun           gprs.o
    0x08003750   0x00000018   Code   RO         3350    i.AtFun             gprs.o
    0x08003768   0x00000018   Code   RO         3351    i.AtGprsDataModeFun  gprs.o
    0x08003780   0x0000006c   Code   RO         3352    i.AtImeiFun         gprs.o
    0x080037ec   0x00000018   Code   RO         3353    i.AtIprFun          gprs.o
    0x08003804   0x00000018   Code   RO         3354    i.AtNullFun         gprs.o
    0x0800381c   0x00000018   Code   RO         3355    i.AtSleepFun        gprs.o
    0x08003834   0x00000018   Code   RO         3356    i.AtWakeFun         gprs.o
    0x0800384c   0x00000010   Code   RO          763    i.BKP_DeInit        stm32f10x_bkp.o
    0x0800385c   0x00000004   Code   RO         2316    i.BusFault_Handler  stm32f10x_it.o
    0x08003860   0x00000038   Code   RO         2123    i.CAN_DeInit        stm32f10x_can.o
    0x08003898   0x00000108   Code   RO         2125    i.CAN_FilterInit    stm32f10x_can.o
    0x080039a0   0x00000012   Code   RO         2131    i.CAN_ITConfig      stm32f10x_can.o
    0x080039b2   0x00000114   Code   RO         2132    i.CAN_Init          stm32f10x_can.o
    0x08003ac6   0x000000f0   Code   RO         2135    i.CAN_Receive       stm32f10x_can.o
    0x08003bb6   0x00000020   Code   RO         2138    i.CAN_StructInit    stm32f10x_can.o
    0x08003bd6   0x00000126   Code   RO         2140    i.CAN_Transmit      stm32f10x_can.o
    0x08003cfc   0x00000014   Code   RO         4537    i.CanDataInit       can.o
    0x08003d10   0x0000002c   Code   RO         4538    i.CanDataRead       can.o
    0x08003d3c   0x00000024   Code   RO         4539    i.CanDataWrite      can.o
    0x08003d60   0x0000003c   Code   RO         4540    i.CanDeInit         can.o
    0x08003d9c   0x00000056   Code   RO         4541    i.CanFilterInit     can.o
    0x08003df2   0x00000002   PAD
    0x08003df4   0x00000150   Code   RO         4542    i.CanInit           can.o
    0x08003f44   0x0000006c   Code   RO         4543    i.CanMain           can.o
    0x08003fb0   0x0000018c   Code   RO         4544    i.CanMonitor        can.o
    0x0800413c   0x00000020   Code   RO         4545    i.CanProcess        can.o
    0x0800415c   0x000001e0   Code   RO         4546    i.CanRx             can.o
    0x0800433c   0x000001e4   Code   RO         4547    i.CanTx             can.o
    0x08004520   0x00000038   Code   RO         4548    i.CanTxData         can.o
    0x08004558   0x0000003e   Code   RO         3128    i.Crc16Verify       selfdef.o
    0x08004596   0x00000002   PAD
    0x08004598   0x00000048   Code   RO         3129    i.CrcCheck          selfdef.o
    0x080045e0   0x0000009c   Code   RO         2317    i.DMA1_Channel1_IRQHandler  stm32f10x_it.o
    0x0800467c   0x0000001c   Code   RO         1224    i.DMA_ClearITPendingBit  stm32f10x_dma.o
    0x08004698   0x00000018   Code   RO         1225    i.DMA_Cmd           stm32f10x_dma.o
    0x080046b0   0x0000014c   Code   RO         1226    i.DMA_DeInit        stm32f10x_dma.o
    0x080047fc   0x0000002c   Code   RO         1228    i.DMA_GetFlagStatus  stm32f10x_dma.o
    0x08004828   0x00000012   Code   RO         1230    i.DMA_ITConfig      stm32f10x_dma.o
    0x0800483a   0x0000003c   Code   RO         1231    i.DMA_Init          stm32f10x_dma.o
    0x08004876   0x00000002   PAD
    0x08004878   0x00000134   Code   RO         4097    i.DayChangeMonitor  systask.o
    0x080049ac   0x00000002   Code   RO         2318    i.DebugMon_Handler  stm32f10x_it.o
    0x080049ae   0x00000002   PAD
    0x080049b0   0x00000080   Code   RO         2515    i.DmaInit           driver.o
    0x08004a30   0x00000058   Code   RO         2516    i.DriverMain        driver.o
    0x08004a88   0x00000070   Code   RO         2319    i.EXTI15_10_IRQHandler  stm32f10x_it.o
    0x08004af8   0x0000007c   Code   RO         2320    i.EXTI9_5_IRQHandler  stm32f10x_it.o
    0x08004b74   0x0000000c   Code   RO         2066    i.EXTI_ClearITPendingBit  stm32f10x_exti.o
    0x08004b80   0x00000024   Code   RO         2067    i.EXTI_DeInit       stm32f10x_exti.o
    0x08004ba4   0x00000028   Code   RO         2070    i.EXTI_GetITStatus  stm32f10x_exti.o
    0x08004bcc   0x00000094   Code   RO         2071    i.EXTI_Init         stm32f10x_exti.o
    0x08004c60   0x00000010   Code   RO         2072    i.EXTI_StructInit   stm32f10x_exti.o
    0x08004c70   0x000000d4   Code   RO         2517    i.ExitInit          driver.o
    0x08004d44   0x0000004c   Code   RO         1054    i.FLASH_ErasePage   stm32f10x_flash.o
    0x08004d90   0x00000034   Code   RO         1055    i.FLASH_GetBank1Status  stm32f10x_flash.o
    0x08004dc4   0x00000014   Code   RO         1064    i.FLASH_Lock        stm32f10x_flash.o
    0x08004dd8   0x0000006c   Code   RO         1069    i.FLASH_ProgramWord  stm32f10x_flash.o
    0x08004e44   0x00000018   Code   RO         1072    i.FLASH_Unlock      stm32f10x_flash.o
    0x08004e5c   0x00000026   Code   RO         1076    i.FLASH_WaitForLastOperation  stm32f10x_flash.o
    0x08004e82   0x00000002   PAD
    0x08004e84   0x00000038   Code   RO         2518    i.FeedWtd           driver.o
    0x08004ebc   0x00000022   Code   RO         4002    i.FlashErase        flash.o
    0x08004ede   0x0000001e   Code   RO         4003    i.FlashRead         flash.o
    0x08004efc   0x0000004c   Code   RO         4004    i.FlashWrite        flash.o
    0x08004f48   0x000001ec   Code   RO         4255    i.FtpAddrAnalysis   ftp.o
    0x08005134   0x00000084   Code   RO         4256    i.FtpConnect        ftp.o
    0x080051b8   0x0000007c   Code   RO         4257    i.FtpDelay          ftp.o
    0x08005234   0x000000a0   Code   RO         4258    i.FtpFileSave       ftp.o
    0x080052d4   0x00000026   Code   RO         4259    i.FtpFun            ftp.o
    0x080052fa   0x00000002   PAD
    0x080052fc   0x000000d0   Code   RO         4260    i.FtpGetFile        ftp.o
    0x080053cc   0x000000f8   Code   RO         4261    i.FtpGetSize        ftp.o
    0x080054c4   0x00000084   Code   RO         4262    i.FtpIpPortInit     ftp.o
    0x08005548   0x00000158   Code   RO         4263    i.FtpMain           ftp.o
    0x080056a0   0x000001ec   Code   RO         4264    i.FtpProcess        ftp.o
    0x0800588c   0x00000048   Code   RO         4265    i.FtpTerminate      ftp.o
    0x080058d4   0x00000128   Code   RO         4266    i.FtpTx             ftp.o
    0x080059fc   0x000000b0   Code   RO         4267    i.FtpTxCwd          ftp.o
    0x08005aac   0x000000a0   Code   RO         4268    i.FtpTxPassword     ftp.o
    0x08005b4c   0x000000f0   Code   RO         4269    i.FtpTxPasv         ftp.o
    0x08005c3c   0x0000006c   Code   RO         4270    i.FtpTxTypeI        ftp.o
    0x08005ca8   0x000000a0   Code   RO         4271    i.FtpTxUserName     ftp.o
    0x08005d48   0x00000112   Code   RO          143    i.GPIO_Init         stm32f10x_gpio.o
    0x08005e5a   0x00000012   Code   RO          147    i.GPIO_ReadInputDataBit  stm32f10x_gpio.o
    0x08005e6c   0x00000004   Code   RO          150    i.GPIO_ResetBits    stm32f10x_gpio.o
    0x08005e70   0x00000004   Code   RO          151    i.GPIO_SetBits      stm32f10x_gpio.o
    0x08005e74   0x00000028   Code   RO         2741    i.GetAccAtatistic   syspara.o
    0x08005e9c   0x00000020   Code   RO         2742    i.GetApn            syspara.o
    0x08005ebc   0x0000018c   Code   RO         2519    i.GetGprsUartRxData  driver.o
    0x08006048   0x00000040   Code   RO         3271    i.GetGpsInfo        gps.o
    0x08006088   0x00000028   Code   RO         2520    i.GetGpsUartRxData  driver.o
    0x080060b0   0x00000038   Code   RO         2743    i.GetHardwareVersion  syspara.o
    0x080060e8   0x00000028   Code   RO         2521    i.GetLocalUartRxData  driver.o
    0x08006110   0x0000001c   Code   RO         2744    i.GetLowVoltageAlarm  syspara.o
    0x0800612c   0x00000014   Code   RO         2745    i.GetLsnalLockEnableFlag  syspara.o
    0x08006140   0x0000001c   Code   RO         2746    i.GetLsnalLockPara  syspara.o
    0x0800615c   0x00000018   Code   RO         2747    i.GetMasterIp       syspara.o
    0x08006174   0x0000001c   Code   RO         2748    i.GetMeterErrTimer  syspara.o
    0x08006190   0x0000001c   Code   RO         2749    i.GetOverSpeed      syspara.o
    0x080061ac   0x0000001c   Code   RO         2750    i.GetPort           syspara.o
    0x080061c8   0x00000018   Code   RO         2751    i.GetSlaverIp       syspara.o
    0x080061e0   0x0000001c   Code   RO         2752    i.GetSleepTimer     syspara.o
    0x080061fc   0x00000020   Code   RO         2753    i.GetSmsAlarmCenterNum  syspara.o
    0x0800621c   0x00000020   Code   RO         2754    i.GetSoftWareVersion  syspara.o
    0x0800623c   0x00000018   Code   RO         2755    i.GetTerminalId     syspara.o
    0x08006254   0x00000030   Code   RO         2756    i.GetTerminalPassword  syspara.o
    0x08006284   0x00000038   Code   RO         2757    i.GetTerminalSerialNum  syspara.o
    0x080062bc   0x00000030   Code   RO         2758    i.GetWorkPara       syspara.o
    0x080062ec   0x00000258   Code   RO         2523    i.GpioInit          driver.o
    0x08006544   0x000001d8   Code   RO         3357    i.GprsAtInit        gprs.o
    0x0800671c   0x00000080   Code   RO         3358    i.GprsAutoBpr       gprs.o
    0x0800679c   0x00000080   Code   RO         3359    i.GprsDelay         gprs.o
    0x0800681c   0x000001b4   Code   RO         3360    i.GprsMain          gprs.o
    0x080069d0   0x00000064   Code   RO         4098    i.GprsMonitor       systask.o
    0x08006a34   0x00000030   Code   RO         3361    i.GprsParaInit      gprs.o
    0x08006a64   0x000000bc   Code   RO         3362    i.GprsPowerInit     gprs.o
    0x08006b20   0x0000013c   Code   RO         3363    i.GprsSendAtCmd     gprs.o
    0x08006c5c   0x00000084   Code   RO         3364    i.GprsSwitchAtMode  gprs.o
    0x08006ce0   0x00000084   Code   RO         3365    i.GprsSwitchGprsDataMode  gprs.o
    0x08006d64   0x00000030   Code   RO         2524    i.GprsUartFixedLenSend  driver.o
    0x08006d94   0x0000005c   Code   RO         2525    i.GprsUartIsRxDone  driver.o
    0x08006df0   0x0000001c   Code   RO         2526    i.GprsUartParaInit  driver.o
    0x08006e0c   0x000000d6   Code   RO         3272    i.GpsAdd8Hour       gps.o
    0x08006ee2   0x00000002   PAD
    0x08006ee4   0x00000104   Code   RO         4099    i.GpsAntMonitor     systask.o
    0x08006fe8   0x000001d0   Code   RO         3273    i.GpsCharFloatDataToHex  gps.o
    0x080071b8   0x00000046   Code   RO         3274    i.GpsFrameCheck     gps.o
    0x080071fe   0x0000007c   Code   RO         3275    i.GpsGetDate        gps.o
    0x0800727a   0x00000002   PAD
    0x0800727c   0x000004ec   Code   RO         3276    i.GpsGetGprmcGpggaInfo  gps.o
    0x08007768   0x00000064   Code   RO         3277    i.GpsGetTime        gps.o
    0x080077cc   0x000001ac   Code   RO         3278    i.GpsMain           gps.o
    0x08007978   0x00000194   Code   RO         4100    i.GpsMonitor        systask.o
    0x08007b0c   0x0000003c   Code   RO         2527    i.GpsUartIsRxDone   driver.o
    0x08007b48   0x00000014   Code   RO         2528    i.GpsUartParaInit   driver.o
    0x08007b5c   0x00000030   Code   RO         3366    i.GsmCsqCheck       gprs.o
    0x08007b8c   0x00000030   Code   RO         4101    i.GsmCsqCheckMonitor  systask.o
    0x08007bbc   0x0000006c   Code   RO         3367    i.GsmDisLcpAndIntoSleep  gprs.o
    0x08007c28   0x0000014c   Code   RO         3368    i.GsmTelSmsProcess  gprs.o
    0x08007d74   0x0000004c   Code   RO         3369    i.GsmVaryInit       gprs.o
    0x08007dc0   0x00000004   Code   RO         2321    i.HardFault_Handler  stm32f10x_it.o
    0x08007dc4   0x00000060   Code   RO         3130    i.HexToAscii        selfdef.o
    0x08007e24   0x00000010   Code   RO         2274    i.IWDG_Enable       stm32f10x_iwdg.o
    0x08007e34   0x00000010   Code   RO         2276    i.IWDG_ReloadCounter  stm32f10x_iwdg.o
    0x08007e44   0x0000000c   Code   RO         2277    i.IWDG_SetPrescaler  stm32f10x_iwdg.o
    0x08007e50   0x0000000c   Code   RO         2278    i.IWDG_SetReload    stm32f10x_iwdg.o
    0x08007e5c   0x0000000c   Code   RO         2279    i.IWDG_WriteAccessCmd  stm32f10x_iwdg.o
    0x08007e68   0x0000003a   Code   RO         3610    i.IpHeadCheck       ppp.o
    0x08007ea2   0x00000002   PAD
    0x08007ea4   0x000000d0   Code   RO         3611    i.IpTx              ppp.o
    0x08007f74   0x00000044   Code   RO         3131    i.IsValidAscii      selfdef.o
    0x08007fb8   0x00000038   Code   RO         3132    i.IsValidChar       selfdef.o
    0x08007ff0   0x00000032   Code   RO         3133    i.IsValidCharFloatNum  selfdef.o
    0x08008022   0x0000002c   Code   RO         3134    i.IsValidNum        selfdef.o
    0x0800804e   0x00000044   Code   RO         3135    i.IsValidNumOrChar  selfdef.o
    0x08008092   0x0000004a   Code   RO         3136    i.IsValidNumOrCharOrDot  selfdef.o
    0x080080dc   0x00000022   Code   RO         2530    i.IwdgInit          driver.o
    0x080080fe   0x00000002   PAD
    0x08008100   0x00000024   Code   RO         4102    i.KeyDataSave       systask.o
    0x08008124   0x000000a0   Code   RO         4103    i.LatLongPositionMonitor  systask.o
    0x080081c4   0x00000068   Code   RO         4622    i.LocalCommDelay    localcomm.o
    0x0800822c   0x00000038   Code   RO         4623    i.LocalCommFtpState  localcomm.o
    0x08008264   0x00000194   Code   RO         4624    i.LocalCommGetSysState  localcomm.o
    0x080083f8   0x00000008   Code   RO         4625    i.LocalCommMain     localcomm.o
    0x08008400   0x000001a4   Code   RO         4626    i.LocalCommRx       localcomm.o
    0x080085a4   0x00000058   Code   RO         4627    i.LocalCommTx       localcomm.o
    0x080085fc   0x00000028   Code   RO         2531    i.LocalDebug        driver.o
    0x08008624   0x00000030   Code   RO         2532    i.LocalUartFixedLenSend  driver.o
    0x08008654   0x0000003c   Code   RO         2533    i.LocalUartIsRxDone  driver.o
    0x08008690   0x00000014   Code   RO         2534    i.LocalUartParaInit  driver.o
    0x080086a4   0x00000038   Code   RO         2759    i.LockRecord        syspara.o
    0x080086dc   0x00000018   Code   RO         2760    i.LockRecordRead    syspara.o
    0x080086f4   0x00000018   Code   RO         2761    i.LockRecordWrite   syspara.o
    0x0800870c   0x0000001e   Code   RO         3138    i.LongTimeDly       selfdef.o
    0x0800872a   0x00000002   PAD
    0x0800872c   0x000000e0   Code   RO         4104    i.LsnalLockMonitor  systask.o
    0x0800880c   0x00000024   Code   RO         3139    i.MemCmp            selfdef.o
    0x08008830   0x00000016   Code   RO         3140    i.MemCpy            selfdef.o
    0x08008846   0x00000004   Code   RO         2322    i.MemManage_Handler  stm32f10x_it.o
    0x0800884a   0x00000002   PAD
    0x0800884c   0x0000003c   Code   RO         2536    i.MeterUartIsRxDone  driver.o
    0x08008888   0x00000004   Code   RO         2323    i.NMI_Handler       stm32f10x_it.o
    0x0800888c   0x00000074   Code   RO          635    i.NVIC_Init         misc.o
    0x08008900   0x00000018   Code   RO         2324    i.PVD_IRQHandler    stm32f10x_it.o
    0x08008918   0x0000000c   Code   RO          839    i.PWR_BackupAccessCmd  stm32f10x_pwr.o
    0x08008924   0x00000040   Code   RO          843    i.PWR_EnterSTOPMode  stm32f10x_pwr.o
    0x08008964   0x00000018   Code   RO          844    i.PWR_GetFlagStatus  stm32f10x_pwr.o
    0x0800897c   0x0000000c   Code   RO          845    i.PWR_PVDCmd        stm32f10x_pwr.o
    0x08008988   0x00000018   Code   RO          846    i.PWR_PVDLevelConfig  stm32f10x_pwr.o
    0x080089a0   0x00000034   Code   RO         2762    i.ParaCorrespond    syspara.o
    0x080089d4   0x00000028   Code   RO         2763    i.ParaRecover       syspara.o
    0x080089fc   0x00000002   Code   RO         2325    i.PendSV_Handler    stm32f10x_it.o
    0x080089fe   0x00000002   PAD
    0x08008a00   0x00000114   Code   RO         4105    i.PowerMonitor      systask.o
    0x08008b14   0x000000e4   Code   RO         3612    i.PppInit           ppp.o
    0x08008bf8   0x00000014   Code   RO         3613    i.PppLcpAck         ppp.o
    0x08008c0c   0x00000028   Code   RO         3614    i.PppLcpNak         ppp.o
    0x08008c34   0x0000010c   Code   RO         3615    i.PppLcpProcess     ppp.o
    0x08008d40   0x00000014   Code   RO         3616    i.PppLcpReq         ppp.o
    0x08008d54   0x00000014   Code   RO         3618    i.PppLcpTerminateAck  ppp.o
    0x08008d68   0x0000022c   Code   RO         3619    i.PppMainProcess    ppp.o
    0x08008f94   0x00000014   Code   RO         3620    i.PppNcpAck         ppp.o
    0x08008fa8   0x0000003c   Code   RO         3621    i.PppNcpNak         ppp.o
    0x08008fe4   0x00000144   Code   RO         3622    i.PppNcpProcess     ppp.o
    0x08009128   0x00000014   Code   RO         3623    i.PppNcpReq         ppp.o
    0x0800913c   0x000000a8   Code   RO         3624    i.PppPacketDecode   ppp.o
    0x080091e4   0x0000010c   Code   RO         3625    i.PppPacketEncode   ppp.o
    0x080092f0   0x0000001c   Code   RO         3626    i.PppPapProcess     ppp.o
    0x0800930c   0x00000078   Code   RO         3627    i.PppPapReq         ppp.o
    0x08009384   0x00000060   Code   RO         3628    i.PppTx             ppp.o
    0x080093e4   0x0000008c   Code   RO         3767    i.ProConstructFrameHead  protocol.o
    0x08009470   0x0000001e   Code   RO         3768    i.ProConstructFrameTail  protocol.o
    0x0800948e   0x00000002   PAD
    0x08009490   0x00000124   Code   RO         3769    i.ProDownAck        protocol.o
    0x080095b4   0x000000a0   Code   RO         3770    i.ProDownCommParaAck  protocol.o
    0x08009654   0x00000030   Code   RO         3771    i.ProDownParaQuery  protocol.o
    0x08009684   0x000000b0   Code   RO         3772    i.ProDownSetControlPara  protocol.o
    0x08009734   0x00000040   Code   RO         3773    i.ProDownSetPara    protocol.o
    0x08009774   0x00000020   Code   RO         3774    i.ProDownSetWorkPara  protocol.o
    0x08009794   0x000000b8   Code   RO         3776    i.ProDownUpgrade    protocol.o
    0x0800984c   0x00000070   Code   RO         3777    i.ProGetFromAccOnBuf  protocol.o
    0x080098bc   0x00000028   Code   RO         3778    i.ProLsnalDataInit  protocol.o
    0x080098e4   0x000000e4   Code   RO         3779    i.ProLsnalDataSave  protocol.o
    0x080099c8   0x00000020   Code   RO         3780    i.ProLsnalHeadTailSave  protocol.o
    0x080099e8   0x00000094   Code   RO         3781    i.ProLsnalPageSave  protocol.o
    0x08009a7c   0x000000b0   Code   RO         3782    i.ProLsnalSysExit   protocol.o
    0x08009b2c   0x000001ac   Code   RO         3783    i.ProPacket         protocol.o
    0x08009cd8   0x00000088   Code   RO         3784    i.ProParaInit       protocol.o
    0x08009d60   0x000001bc   Code   RO         3785    i.ProPeriodTx       protocol.o
    0x08009f1c   0x0000014c   Code   RO         3786    i.ProProcess        protocol.o
    0x0800a068   0x00000054   Code   RO         3787    i.ProPutIntoAccOnBuf  protocol.o
    0x0800a0bc   0x000000d8   Code   RO         3788    i.ProPutIntoLsnal   protocol.o
    0x0800a194   0x00000028   Code   RO         3789    i.ProUpAccOnOff     protocol.o
    0x0800a1bc   0x0000003a   Code   RO         3790    i.ProUpAck          protocol.o
    0x0800a1f6   0x0000002e   Code   RO         3791    i.ProUpAlarm        protocol.o
    0x0800a224   0x0000001e   Code   RO         3792    i.ProUpAquireCommPara  protocol.o
    0x0800a242   0x00000058   Code   RO         3793    i.ProUpControllerAck  protocol.o
    0x0800a29a   0x00000012   Code   RO         3795    i.ProUpHeartBeat    protocol.o
    0x0800a2ac   0x00000016   Code   RO         3796    i.ProUpLatLongPosition  protocol.o
    0x0800a2c2   0x0000001e   Code   RO         3797    i.ProUpLogin        protocol.o
    0x0800a2e0   0x00000130   Code   RO         3798    i.ProUpLsnalData    protocol.o
    0x0800a410   0x0000001e   Code   RO         3799    i.ProUpPosition     protocol.o
    0x0800a42e   0x0000001e   Code   RO         3800    i.ProUpSleep        protocol.o
    0x0800a44c   0x0000001c   Code   RO         3801    i.ProUpUpgradeResult  protocol.o
    0x0800a468   0x00000150   Code   RO         3802    i.ProUpWorkPara     protocol.o
    0x0800a5b8   0x00000016   Code   RO         3803    i.ProUpWorkTimeStatistic  protocol.o
    0x0800a5ce   0x00000058   Code   RO         2538    i.PvdInit           driver.o
    0x0800a626   0x00000002   PAD
    0x0800a628   0x000001a0   Code   RO         2764    i.QuerySysPrivatePara  syspara.o
    0x0800a7c8   0x00000020   Code   RO          256    i.RCC_AHBPeriphClockCmd  stm32f10x_rcc.o
    0x0800a7e8   0x00000020   Code   RO          257    i.RCC_APB1PeriphClockCmd  stm32f10x_rcc.o
    0x0800a808   0x00000020   Code   RO          258    i.RCC_APB1PeriphResetCmd  stm32f10x_rcc.o
    0x0800a828   0x00000020   Code   RO          259    i.RCC_APB2PeriphClockCmd  stm32f10x_rcc.o
    0x0800a848   0x00000020   Code   RO          260    i.RCC_APB2PeriphResetCmd  stm32f10x_rcc.o
    0x0800a868   0x0000000c   Code   RO          262    i.RCC_BackupResetCmd  stm32f10x_rcc.o
    0x0800a874   0x000000d4   Code   RO          267    i.RCC_GetClocksFreq  stm32f10x_rcc.o
    0x0800a948   0x0000003c   Code   RO          268    i.RCC_GetFlagStatus  stm32f10x_rcc.o
    0x0800a984   0x00000010   Code   RO          270    i.RCC_GetSYSCLKSource  stm32f10x_rcc.o
    0x0800a994   0x0000004c   Code   RO          272    i.RCC_HSEConfig     stm32f10x_rcc.o
    0x0800a9e0   0x00000034   Code   RO          275    i.RCC_LSEConfig     stm32f10x_rcc.o
    0x0800aa14   0x0000000c   Code   RO          280    i.RCC_PLLCmd        stm32f10x_rcc.o
    0x0800aa20   0x0000000c   Code   RO          282    i.RCC_RTCCLKCmd     stm32f10x_rcc.o
    0x0800aa2c   0x00000010   Code   RO          283    i.RCC_RTCCLKConfig  stm32f10x_rcc.o
    0x0800aa3c   0x00000018   Code   RO          284    i.RCC_SYSCLKConfig  stm32f10x_rcc.o
    0x0800aa54   0x00000038   Code   RO          286    i.RCC_WaitForHSEStartUp  stm32f10x_rcc.o
    0x0800aa8c   0x00000020   Code   RO         2326    i.RTCAlarm_IRQHandler  stm32f10x_it.o
    0x0800aaac   0x00000010   Code   RO          672    i.RTC_ClearITPendingBit  stm32f10x_rtc.o
    0x0800aabc   0x00000014   Code   RO          673    i.RTC_EnterConfigMode  stm32f10x_rtc.o
    0x0800aad0   0x00000014   Code   RO          674    i.RTC_ExitConfigMode  stm32f10x_rtc.o
    0x0800aae4   0x00000014   Code   RO          675    i.RTC_GetCounter    stm32f10x_rtc.o
    0x0800aaf8   0x00000024   Code   RO          678    i.RTC_GetITStatus   stm32f10x_rtc.o
    0x0800ab1c   0x00000058   Code   RO         2327    i.RTC_IRQHandler    stm32f10x_it.o
    0x0800ab74   0x00000020   Code   RO          679    i.RTC_ITConfig      stm32f10x_rtc.o
    0x0800ab94   0x0000001c   Code   RO          680    i.RTC_SetAlarm      stm32f10x_rtc.o
    0x0800abb0   0x0000001c   Code   RO          681    i.RTC_SetCounter    stm32f10x_rtc.o
    0x0800abcc   0x00000020   Code   RO          682    i.RTC_SetPrescaler  stm32f10x_rtc.o
    0x0800abec   0x00000014   Code   RO          683    i.RTC_WaitForLastTask  stm32f10x_rtc.o
    0x0800ac00   0x00000020   Code   RO          684    i.RTC_WaitForSynchro  stm32f10x_rtc.o
    0x0800ac20   0x00000014   Code   RO         3141    i.RamClear          selfdef.o
    0x0800ac34   0x00000014   Code   RO         3142    i.RamZero           selfdef.o
    0x0800ac48   0x00000074   Code   RO         4106    i.RingSmsMonitor    systask.o
    0x0800acbc   0x00000076   Code   RO         2539    i.RtcConfiguration  driver.o
    0x0800ad32   0x0000003a   Code   RO         2540    i.RtcGetCalendarTime  driver.o
    0x0800ad6c   0x0000003c   Code   RO         2541    i.RtcInit           driver.o
    0x0800ada8   0x00000068   Code   RO         2542    i.RtcSetCalendarTime  driver.o
    0x0800ae10   0x00000018   Code   RO          910    i.SPI_Cmd           stm32f10x_spi.o
    0x0800ae28   0x00000012   Code   RO          918    i.SPI_I2S_GetFlagStatus  stm32f10x_spi.o
    0x0800ae3a   0x00000006   Code   RO          921    i.SPI_I2S_ReceiveData  stm32f10x_spi.o
    0x0800ae40   0x00000004   Code   RO          922    i.SPI_I2S_SendData  stm32f10x_spi.o
    0x0800ae44   0x0000003c   Code   RO          923    i.SPI_Init          stm32f10x_spi.o
    0x0800ae80   0x00000002   Code   RO         2328    i.SVC_Handler       stm32f10x_it.o
    0x0800ae82   0x00000002   PAD
    0x0800ae84   0x00000058   Code   RO         2765    i.SetAccStatistic   syspara.o
    0x0800aedc   0x00000064   Code   RO         2766    i.SetApn            syspara.o
    0x0800af40   0x00000068   Code   RO         2767    i.SetHardwareVersion  syspara.o
    0x0800afa8   0x00000034   Code   RO         2768    i.SetLowVoltageAlarm  syspara.o
    0x0800afdc   0x00000028   Code   RO         2769    i.SetLsnalLockEnableFlag  syspara.o
    0x0800b004   0x0000003c   Code   RO         2770    i.SetLsnalLockPara  syspara.o
    0x0800b040   0x00000064   Code   RO         2771    i.SetMasterIp       syspara.o
    0x0800b0a4   0x0000003c   Code   RO         2772    i.SetMeterErrTimer  syspara.o
    0x0800b0e0   0x00000038   Code   RO         2773    i.SetOverSpeed      syspara.o
    0x0800b118   0x00000044   Code   RO         2774    i.SetPort           syspara.o
    0x0800b15c   0x00000064   Code   RO         2775    i.SetSlaverIp       syspara.o
    0x0800b1c0   0x00000044   Code   RO         2776    i.SetSleepTimer     syspara.o
    0x0800b204   0x0000005c   Code   RO         2777    i.SetSmsAlarmCenterNum  syspara.o
    0x0800b260   0x00000008   Code   RO           24    i.SetSysClock       system_stm32f10x.o
    0x0800b268   0x000000dc   Code   RO           25    i.SetSysClockTo72   system_stm32f10x.o
    0x0800b344   0x000001b0   Code   RO         2778    i.SetSysPrivatePara  syspara.o
    0x0800b4f4   0x0000004c   Code   RO         2779    i.SetTerminalId     syspara.o
    0x0800b540   0x00000048   Code   RO         2780    i.SetTerminalPassword  syspara.o
    0x0800b588   0x0000006c   Code   RO         2781    i.SetTerminalSerialNum  syspara.o
    0x0800b5f4   0x00000054   Code   RO         2782    i.SetWorkPara       syspara.o
    0x0800b648   0x000000e4   Code   RO         4107    i.ShellMonitor      systask.o
    0x0800b72c   0x00000084   Code   RO         3574    i.SimNumToTermId    sim.o
    0x0800b7b0   0x00000080   Code   RO         3576    i.SimSetSimNum      sim.o
    0x0800b830   0x00000058   Code   RO         3578    i.SimTermIdToAsciiNum  sim.o
    0x0800b888   0x00000154   Code   RO         4381    i.SmsAckPacket      sms.o
    0x0800b9dc   0x00000284   Code   RO         4382    i.SmsAnalysis       sms.o
    0x0800bc60   0x00000050   Code   RO         4383    i.SmsDecode7bit     sms.o
    0x0800bcb0   0x0000001a   Code   RO         4384    i.SmsDecode8bit     sms.o
    0x0800bcca   0x00000002   PAD
    0x0800bccc   0x000001c8   Code   RO         4385    i.SmsDecodePdu      sms.o
    0x0800be94   0x00000020   Code   RO         4386    i.SmsDecodeUcs2     sms.o
    0x0800beb4   0x00000042   Code   RO         4387    i.SmsEncode7bit     sms.o
    0x0800bef6   0x0000001c   Code   RO         4388    i.SmsEncode8bit     sms.o
    0x0800bf12   0x00000002   PAD
    0x0800bf14   0x000000e0   Code   RO         4389    i.SmsEncodePdu      sms.o
    0x0800bff4   0x00000026   Code   RO         4390    i.SmsEncodeUcs2     sms.o
    0x0800c01a   0x00000002   PAD
    0x0800c01c   0x00000154   Code   RO         4391    i.SmsErrorAnalysis  sms.o
    0x0800c170   0x0000005c   Code   RO         4392    i.SmsLock           sms.o
    0x0800c1cc   0x00000032   Code   RO         4393    i.SmsNumDecode      sms.o
    0x0800c1fe   0x00000054   Code   RO         4394    i.SmsNumEncode      sms.o
    0x0800c252   0x00000026   Code   RO         4395    i.SmsParaLen        sms.o
    0x0800c278   0x00000248   Code   RO         4396    i.SmsParaQuery      sms.o
    0x0800c4c0   0x00000038   Code   RO         4397    i.SmsParaReInit     sms.o
    0x0800c4f8   0x000002ac   Code   RO         4398    i.SmsParaSet        sms.o
    0x0800c7a4   0x000000d8   Code   RO         4399    i.SmsProcessFun     sms.o
    0x0800c87c   0x00000038   Code   RO         4400    i.SmsProgramUpgrade  sms.o
    0x0800c8b4   0x00000050   Code   RO         4401    i.SmsTextDecode     sms.o
    0x0800c904   0x00000066   Code   RO         4402    i.SmsTextEncode     sms.o
    0x0800c96a   0x00000002   PAD
    0x0800c96c   0x000000c8   Code   RO         4403    i.SmsTx             sms.o
    0x0800ca34   0x0000004c   Code   RO         4404    i.SmsUnlock         sms.o
    0x0800ca80   0x00000114   Code   RO         4108    i.SpeedMonitor      systask.o
    0x0800cb94   0x00000094   Code   RO         4026    i.SpiFramInit       fram.o
    0x0800cc28   0x000000ac   Code   RO         4027    i.SpiFramPageWrite  fram.o
    0x0800ccd4   0x00000034   Code   RO         4028    i.SpiFramRdByte     fram.o
    0x0800cd08   0x00000028   Code   RO         4029    i.SpiFramRdRdsr     fram.o
    0x0800cd30   0x000000f0   Code   RO         4030    i.SpiFramRead       fram.o
    0x0800ce20   0x0000001a   Code   RO         4031    i.SpiFramWaitFree   fram.o
    0x0800ce3a   0x00000002   PAD
    0x0800ce3c   0x00000038   Code   RO         4032    i.SpiFramWrByte     fram.o
    0x0800ce74   0x00000024   Code   RO         4034    i.SpiFramWrWren     fram.o
    0x0800ce98   0x0000007e   Code   RO         4035    i.SpiFramWrite      fram.o
    0x0800cf16   0x00000020   Code   RO         3143    i.StrLen            selfdef.o
    0x0800cf36   0x0000003e   Code   RO         3144    i.SubMatch          selfdef.o
    0x0800cf74   0x00000014   Code   RO         2783    i.SysBootParaRead   syspara.o
    0x0800cf88   0x00000024   Code   RO         2784    i.SysBootParaWrite  syspara.o
    0x0800cfac   0x00000036   Code   RO         2543    i.SysClkConfigStop  driver.o
    0x0800cfe2   0x00000002   PAD
    0x0800cfe4   0x0000010c   Code   RO         2785    i.SysCommParaInit   syspara.o
    0x0800d0f0   0x0000001c   Code   RO         2786    i.SysDataRead       syspara.o
    0x0800d10c   0x0000001c   Code   RO         2787    i.SysDataWrite      syspara.o
    0x0800d128   0x00000068   Code   RO         4109    i.SysDelay          systask.o
    0x0800d190   0x00000030   Code   RO         2788    i.SysKeyDataSave    syspara.o
    0x0800d1c0   0x00000038   Code   RO         4110    i.SysNoTaskDelay    systask.o
    0x0800d1f8   0x000000b8   Code   RO         2789    i.SysParaRead       syspara.o
    0x0800d2b0   0x00000074   Code   RO         2790    i.SysPrivateParaInit  syspara.o
    0x0800d324   0x00000018   Code   RO         2791    i.SysPrivateParaRead  syspara.o
    0x0800d33c   0x00000028   Code   RO         2792    i.SysPrivateParaWrite  syspara.o
    0x0800d364   0x0000000c   Code   RO         2793    i.SysReset          syspara.o
    0x0800d370   0x00000018   Code   RO         2794    i.SysSerialRead     syspara.o
    0x0800d388   0x00000018   Code   RO         2795    i.SysSerialWrite    syspara.o
    0x0800d3a0   0x000000fc   Code   RO         4111    i.SysTaskMain       systask.o
    0x0800d49c   0x00000012   Code   RO         2544    i.SysTickDisable    driver.o
    0x0800d4ae   0x00000012   Code   RO         2545    i.SysTickEnable     driver.o
    0x0800d4c0   0x00000060   Code   RO         2546    i.SysTickInit       driver.o
    0x0800d520   0x00000050   Code   RO         2329    i.SysTick_Handler   stm32f10x_it.o
    0x0800d570   0x000000e8   Code   RO         2796    i.SysVaryInit       syspara.o
    0x0800d658   0x000000a0   Code   RO         2797    i.SysWorkParaInit   syspara.o
    0x0800d6f8   0x00000018   Code   RO         2798    i.SysWorkParaRead   syspara.o
    0x0800d710   0x00000018   Code   RO         2799    i.SysWorkParaWrite  syspara.o
    0x0800d728   0x00000060   Code   RO           27    i.SystemInit        system_stm32f10x.o
    0x0800d788   0x00000002   Code   RO         3629    i.TcpProcess        ppp.o
    0x0800d78a   0x00000002   PAD
    0x0800d78c   0x00000094   Code   RO         3630    i.TcpUdpHeadCheck   ppp.o
    0x0800d820   0x000002ec   Code   RO         4112    i.TermEnterSleep    systask.o
    0x0800db0c   0x00000064   Code   RO         4113    i.TermOffPwrAndPeriDeInit  systask.o
    0x0800db70   0x000000a0   Code   RO         4114    i.TermOnPwrAndPeriReInit  systask.o
    0x0800dc10   0x00000018   Code   RO         2800    i.TermReset         syspara.o
    0x0800dc28   0x00000018   Code   RO         2801    i.TermReset2        syspara.o
    0x0800dc40   0x00000040   Code   RO         4115    i.TerminalHeart     systask.o
    0x0800dc80   0x000000b4   Code   RO         4628    i.ThagDebugRead     localcomm.o
    0x0800dd34   0x000000c0   Code   RO         4273    i.ThagFtpFun        ftp.o
    0x0800ddf4   0x00000168   Code   RO         4116    i.TrailerMonitor    systask.o
    0x0800df5c   0x0000001c   Code   RO         3145    i.U8SumCheck        selfdef.o
    0x0800df78   0x00000018   Code   RO         3146    i.U8ToUint32        selfdef.o
    0x0800df90   0x0000005c   Code   RO         2330    i.UART4_IRQHandler  stm32f10x_it.o
    0x0800dfec   0x0000004c   Code   RO         2331    i.USART1_IRQHandler  stm32f10x_it.o
    0x0800e038   0x0000004c   Code   RO         2332    i.USART2_IRQHandler  stm32f10x_it.o
    0x0800e084   0x00000080   Code   RO         2333    i.USART3_IRQHandler  stm32f10x_it.o
    0x0800e104   0x00000018   Code   RO          459    i.USART_Cmd         stm32f10x_usart.o
    0x0800e11c   0x0000009c   Code   RO          461    i.USART_DeInit      stm32f10x_usart.o
    0x0800e1b8   0x0000001a   Code   RO          462    i.USART_GetFlagStatus  stm32f10x_usart.o
    0x0800e1d2   0x00000054   Code   RO          463    i.USART_GetITStatus  stm32f10x_usart.o
    0x0800e226   0x0000004a   Code   RO          465    i.USART_ITConfig    stm32f10x_usart.o
    0x0800e270   0x000000d8   Code   RO          466    i.USART_Init        stm32f10x_usart.o
    0x0800e348   0x0000000a   Code   RO          473    i.USART_ReceiveData  stm32f10x_usart.o
    0x0800e352   0x00000008   Code   RO          476    i.USART_SendData    stm32f10x_usart.o
    0x0800e35a   0x00000008   Code   RO         2334    i.USB_LP_CAN1_RX0_IRQHandler  stm32f10x_it.o
    0x0800e362   0x00000002   PAD
    0x0800e364   0x00000040   Code   RO         3631    i.UdpIpPortInit     ppp.o
    0x0800e3a4   0x00000010   Code   RO         3632    i.UdpProcess        ppp.o
    0x0800e3b4   0x00000084   Code   RO         3633    i.UdpTx             ppp.o
    0x0800e438   0x00000010   Code   RO         3147    i.Uint32ToU8        selfdef.o
    0x0800e448   0x00000014   Code   RO         2802    i.UnLockRecord      syspara.o
    0x0800e45c   0x00000004   Code   RO         2335    i.UsageFault_Handler  stm32f10x_it.o
    0x0800e460   0x0000003c   Code   RO         2547    i.UsartGprsDeInit   driver.o
    0x0800e49c   0x00000200   Code   RO         2548    i.UsartInit         driver.o
    0x0800e69c   0x00000128   Code   RO         4117    i.VoltageMonitor    systask.o
    0x0800e7c4   0x0000001a   Code   RO         3148    i.XorCheck          selfdef.o
    0x0800e7de   0x0000000e   Code   RO         4729    i._is_digit         c_w.l(__printf_wp.o)
    0x0800e7ec   0x000000dc   Code   RO         4670    i.main              main.o
    0x0800e8c8   0x000000dc   Data   RO         2804    .constdata          syspara.o
    0x0800e9a4   0x00000200   Data   RO         3149    .constdata          selfdef.o
    0x0800eba4   0x0000000c   Data   RO         3371    .constdata          gprs.o
    0x0800ebb0   0x00000028   Data   RO         4702    .constdata          c_w.l(_printf_hex_int.o)
    0x0800ebd8   0x00000011   Data   RO         4737    .constdata          c_w.l(__printf_flags_ss_wp.o)
    0x0800ebe9   0x0000000c   Data   RO         4772    .constdata          c_w.l(_monlen.o)
    0x0800ebf5   0x00000003   PAD
    0x0800ebf8   0x00000020   Data   RO         4928    Region$$Table       anon$$obj.o


    Execution Region RW_IRAM1 (Base: 0x20000000, Size: 0x0000be28, Max: 0x00010000, ABSOLUTE, COMPRESSED[0x00000178])

    Base Addr    Size         Type   Attr      Idx    E Section Name        Object

    0x20000000   0x00000014   Data   RW          287    .data               stm32f10x_rcc.o
    0x20000014   0x00000001   Data   RW         2337    .data               stm32f10x_it.o
    0x20000015   0x00000001   PAD
    0x20000016   0x00000008   Data   RW         2550    .data               driver.o
    0x2000001e   0x00000004   Data   RW         3280    .data               gps.o
    0x20000022   0x00000002   PAD
    0x20000024   0x00000234   Data   RW         3372    .data               gprs.o
    0x20000258   0x00000002   Data   RW         3635    .data               ppp.o
    0x2000025a   0x00000002   Data   RW         3805    .data               protocol.o
    0x2000025c   0x00000020   Data   RW         4118    .data               systask.o
    0x2000027c   0x00000006   Data   RW         4550    .data               can.o
    0x20000282   0x00000002   PAD
    0x20000284   0x00000010   Zero   RW         2336    .bss                stm32f10x_it.o
    0x20000294   0x00001330   Zero   RW         2549    .bss                driver.o
    0x200015c4   0x00000483   Zero   RW         2803    .bss                syspara.o
    0x20001a47   0x00000148   Zero   RW         3279    .bss                gps.o
    0x20001b8f   0x00000001   PAD
    0x20001b90   0x0000002a   Zero   RW         3370    .bss                gprs.o
    0x20001bba   0x00000002   PAD
    0x20001bbc   0x00000064   Zero   RW         3634    .bss                ppp.o
    0x20001c20   0x00000d8e   Zero   RW         3804    .bss                protocol.o
    0x200029ae   0x00000002   PAD
    0x200029b0   0x000002dc   Zero   RW         4274    .bss                ftp.o
    0x20002c8c   0x00000043   Zero   RW         4405    .bss                sms.o
    0x20002ccf   0x000000cc   Zero   RW         4549    .bss                can.o
    0x20002d9b   0x00000001   PAD
    0x20002d9c   0x0000002c   Zero   RW         4751    .bss                c_w.l(localtime.o)
    0x20002dc8   0x00000060   Zero   RW         4805    .bss                c_w.l(libspace.o)
    0x20002e28   0x00001000   Zero   RW            2    HEAP                startup_stm32f10x_hd.o
    0x20003e28   0x00008000   Zero   RW            1    STACK               startup_stm32f10x_hd.o


==============================================================================

Image component sizes


      Code (inc. data)   RO Data    RW Data    ZI Data      Debug   Object Name

      2138        308          0          6        204       9982   can.o
         0          0          0          0          0       4316   core_cm3.o
      3440        224          0          8       4912      38498   driver.o
       140          0          0          0          0       2322   flash.o
       896         38          0          0          0       6656   fram.o
      3774        254          0          0        732      15087   ftp.o
      4040        628         12        564         42      28382   gprs.o
      2724        208          0          4        328       9239   gps.o
      1260         38          0          0          0       6388   localcomm.o
       220         38          0          0          0        611   main.o
       116         14          0          0          0       1064   misc.o
      2884        296          0          2        100      17518   ppp.o
      4584        360          0          2       3470      28324   protocol.o
      1060         26        512          0          0      14481   selfdef.o
       348         18          0          0          0       2538   sim.o
      4592        312          0          0         67      20312   sms.o
        64         26        304          0      36864        872   startup_stm32f10x_hd.o
       390         10          0          0          0       7613   stm32f10x_adc.o
        16          0          0          0          0        509   stm32f10x_bkp.o
      1180         12          0          0          0       5622   stm32f10x_can.o
       506         28          0          0          0       5317   stm32f10x_dma.o
       252         26          0          0          0       3252   stm32f10x_exti.o
       318         32          0          0          0       5002   stm32f10x_flash.o
       300          0          0          0          0       3764   stm32f10x_gpio.o
      1022         88          0          1         16      16032   stm32f10x_it.o
        68         30          0          0          0       2622   stm32f10x_iwdg.o
       136         32          0          0          0       2884   stm32f10x_pwr.o
       708        102          0         20          0      12050   stm32f10x_rcc.o
       284         52          0          0          0       5967   stm32f10x_rtc.o
       112          0          0          0          0       3962   stm32f10x_spi.o
       598         28          0          0          0       6948   stm32f10x_usart.o
      4336        490        220          0       1155      43550   syspara.o
      5540        972          0         32          0      17981   systask.o
       324         28          0          0          0     273221   system_stm32f10x.o

    ----------------------------------------------------------------------
     48424       4718       1080        644      47896     622886   Object Totals
         0          0         32          0          0          0   (incl. Generated)
        54          0          0          5          6          0   (incl. Padding)

    ----------------------------------------------------------------------

      Code (inc. data)   RO Data    RW Data    ZI Data      Debug   Library Member Name

        44          6          0          0          0         84   __2sprintf.o
        90          0          0          0          0          0   __dczerorl2.o
         8          0          0          0          0         68   __main.o
       396          6         17          0          0         92   __printf_flags_ss_wp.o
        14          0          0          0          0         68   __printf_wp.o
        52          8          0          0          0          0   __scatter.o
        28          0          0          0          0          0   __scatter_zi.o
         0          0         12          0          0          0   _monlen.o
         6          0          0          0          0          0   _printf_c.o
        44          0          0          0          0        108   _printf_char.o
        48          6          0          0          0         96   _printf_char_common.o
         6          0          0          0          0          0   _printf_d.o
       120         18          0          0          0         92   _printf_dec.o
        92          4         40          0          0         88   _printf_hex_int.o
       184          0          0          0          0         88   _printf_intcommon.o
        10          0          0          0          0          0   _printf_ll.o
         6          0          0          0          0          0   _printf_llu.o
       120         16          0          0          0         92   _printf_longlong_dec.o
        82          0          0          0          0        108   _printf_pad.o
         0          0          0          0          0          0   _printf_percent.o
         4          0          0          0          0          0   _printf_percent_end.o
         6          0          0          0          0          0   _printf_s.o
        82          0          0          0          0         80   _printf_str.o
         6          0          0          0          0          0   _printf_u.o
         6          0          0          0          0          0   _printf_x.o
        10          0          0          0          0         68   _sputc.o
        12          0          0          0          0         72   exit.o
         6          0          0          0          0        152   heapauxi.o
         0          0          0          0          0          0   indicate_semi.o
         2          0          0          0          0          0   libinit.o
         2          0          0          0          0          0   libinit2.o
         2          0          0          0          0          0   libshutdown.o
         2          0          0          0          0          0   libshutdown2.o
         8          4          0          0         96         68   libspace.o
       138          0          0          0          0         80   lludiv10.o
        12          6          0          0         44         68   localtime.o
       164          6          0          0          0         80   localtime_internal.o
       420          8          0          0          0        124   mktime.o
        78          0          0          0          0         80   rt_memclr_w.o
       138          0          0          0          0         68   rt_memcpy_v6.o
       100          0          0          0          0         80   rt_memcpy_w.o
         0          0          0          0          0          0   rtentry.o
        12          0          0          0          0          0   rtentry2.o
         6          0          0          0          0          0   rtentry4.o
         2          0          0          0          0          0   rtexit.o
        10          0          0          0          0          0   rtexit2.o
        12          4          0          0          0         68   sys_exit.o
        74          0          0          0          0         80   sys_stackheap_outer.o
         2          0          0          0          0         68   use_no_semi.o

    ----------------------------------------------------------------------
      2672         92         72          0        140       2220   Library Totals
         6          0          3          0          0          0   (incl. Padding)

    ----------------------------------------------------------------------

      Code (inc. data)   RO Data    RW Data    ZI Data      Debug   Library Name

      2666         92         69          0        140       2220   c_w.l

    ----------------------------------------------------------------------
      2672         92         72          0        140       2220   Library Totals

    ----------------------------------------------------------------------

==============================================================================


      Code (inc. data)   RO Data    RW Data    ZI Data      Debug   

     51096       4810       1152        644      48036     601446   Grand Totals
     51096       4810       1152        376      48036     601446   ELF Image Totals (compressed)
     51096       4810       1152        376          0          0   ROM Totals

==============================================================================

    Total RO  Size (Code + RO Data)                52248 (  51.02kB)
    Total RW  Size (RW Data + ZI Data)             48680 (  47.54kB)
    Total ROM Size (Code + RO Data + RW Data)      52624 (  51.39kB)

==============================================================================

